ARM Linker, 4.1 [Build 791] [Standard]

==============================================================================

Section Cross References

    app_hooks.o(.text) refers to app.o(.text) for App_TimeTickFunc
    app.o(.text) refers to os_cpu_a.o(.text) for OS_CPU_SR_Save
    app.o(.text) refers to bsp_i2c.o(.text) for BSP_WriteI2C1
    app.o(.text) refers to miscfnx.o(.text) for Calc_CRCByte
    app.o(.text) refers to app_led.o(.text) for LedHandler
    app.o(.text) refers to app.o(.data) for g_I2C_RdyF
    app.o(.text) refers to app.o(.bss) for LJBPosInfo
    app.o(.text) refers to f205_flash.o(.text) for F205_ReadParams
    app.o(.text) refers to os_task.o(.text) for OSTaskCreateExt
    app.o(.text) refers to fflt_clz.o(x$fpl$fflt) for __aeabi_i2f
    app.o(.text) refers to fdiv.o(x$fpl$fdiv) for __aeabi_fdiv
    app.o(.text) refers to bsp_gpio.o(.text) for BSP_FeedDog
    app.o(.text) refers to bsp_led.o(.text) for BSP_LED_On
    app.o(.text) refers to cpu_core.o(.text) for CPU_Init
    app.o(.text) refers to lib_mem.o(.text) for Mem_Init
    app.o(.text) refers to bsp.o(.text) for BSP_CPU_TickInit
    app.o(.text) refers to os_core.o(.text) for OSStatInit
    app.o(.text) refers to bsp_ser.o(.text) for BSP_Ser_Printf
    app.o(.text) refers to os_time.o(.text) for OSTimeDly
    app.o(.text) refers to app_usart1.o(.text) for AppTaskUsart1
    app.o(.text) refers to app_usart6.o(.text) for AppTaskUsart6
    app.o(.text) refers to app_adc.o(.text) for AppTaskADC
    app.o(.text) refers to app_i2c1.o(.text) for AppTaskI2C1
    app.o(.text) refers to rt_memclr_w.o(.text) for __aeabi_memclr4
    app.o(.text) refers to rt_memclr.o(.text) for __aeabi_memclr
    app.o(.text) refers to bsp_int.o(.text) for BSP_IntDisAll
    app.o(.text) refers to usart_common.o(.text) for Usart_InitInfo
    app.o(.text) refers to os_core.o(.data) for OSCPUUsage
    app.o(.text) refers to app_adc.o(.bss) for AdcBuf
    app.o(.text) refers to bsp.o(.bss) for BSP_Info
    app.o(.text) refers to app_usart1.o(.bss) for Usart1RxBuf
    app.o(.text) refers to app_usart6.o(.bss) for Usart6RxBuf
    miscfnx.o(.text) refers to miscfnx.o(.constdata) for CRCTable
    usart_common.o(.text) refers to miscfnx.o(.text) for Calc_CRCByte
    usart_common.o(.text) refers to usart_common.o(i._SetRxData) for _SetRxData
    usart_common.o(.text) refers to usart_common.o(i._InitRx) for _InitRx
    usart_common.o(.text) refers to os_sem.o(.text) for OSSemPend
    usart_common.o(.text) refers to bsp_gpio.o(.text) for BSP_EnableUsartTx
    usart_common.o(.text) refers to os_time.o(.text) for OSTimeDly
    usart_common.o(.text) refers to bsp_usart.o(.text) for BSP_USART_TxData
    usart_common.o(.text) refers to usart_common.o(.data) for __StartF
    usart_common.o(.text) refers to usart_common.o(.bss) for __RxLen
    usart_common.o(.text) refers to bsp.o(.bss) for BSP_Info
    usart_common.o(.text) refers to app.o(.bss) for AppInfo
    usart_common.o(.text) refers to usart_common.o(.constdata) for _USART_TIME_OUT
    usart_common.o(.text) refers to bsp_usart.o(.bss) for Sem_UsartTxRdy
    usart_common.o(.data) refers to app_usart1.o(.text) for Usart1_RxFrameHandler
    usart_common.o(.data) refers to usart_common.o(.text) for NULL_RxHandler
    usart_common.o(.data) refers to app_usart6.o(.text) for Usart6_RxFrameHandler
    f205_flash.o(.text) refers to stm32f2xx_flash.o(.text) for FLASH_Unlock
    app_led.o(.text) refers to bsp_led.o(.text) for BSP_LED_Off
    app_led.o(.text) refers to app.o(.bss) for AppInfo
    app_adc.o(.text) refers to fflt_clz.o(x$fpl$ffltu) for __aeabi_ui2f
    app_adc.o(.text) refers to fmul.o(x$fpl$fmul) for __aeabi_fmul
    app_adc.o(.text) refers to frleqf.o(x$fpl$frleqf) for __aeabi_cfrcmple
    app_adc.o(.text) refers to fleqf.o(x$fpl$fleqf) for __aeabi_cfcmple
    app_adc.o(.text) refers to fdiv.o(x$fpl$fdiv) for __aeabi_fdiv
    app_adc.o(.text) refers to ffixu.o(x$fpl$ffixu) for __aeabi_f2uiz
    app_adc.o(.text) refers to stm32f2xx_adc.o(.text) for ADC_GetFlagStatus
    app_adc.o(.text) refers to bsp_adc.o(.text) for BSP_ADC_Init
    app_adc.o(.text) refers to os_time.o(.text) for OSTimeDly
    app_adc.o(.text) refers to app_adc.o(.bss) for _ResBuf
    app_adc.o(.text) refers to app.o(.bss) for AppInfo
    app_adc.o(.text) refers to app_adc.o(.data) for _OldDigRes
    app_adc.o(.text) refers to app.o(.data) for g_UsartRWPowOffComplete
    app_adc.o(.text) refers to bsp.o(.bss) for BSP_Info
    app_i2c1.o(.text) refers to os_time.o(.text) for OSTimeDly
    app_i2c1.o(.text) refers to bsp_i2c.o(.text) for BSP_WriteI2C1
    app_usart1.o(.text) refers to usart_common.o(.text) for Usart_RxDataHandler
    app_usart1.o(.text) refers to os_time.o(.text) for OSTimeDly
    app_usart1.o(.text) refers to os_cpu_a.o(.text) for OS_CPU_SR_Save
    app_usart1.o(.text) refers to bsp_i2c.o(.text) for BSP_ReadI2C1
    app_usart1.o(.text) refers to miscfnx.o(.text) for Calc_CRCByte
    app_usart1.o(.text) refers to app_usart1.o(.bss) for _tmpRxBuf1
    app_usart1.o(.text) refers to app.o(.bss) for AppInfo
    app_usart1.o(.text) refers to app.o(.data) for g_UsartRWPowOffComplete
    app_usart1.o(.text) refers to app_adc.o(.data) for _DigRes
    app_usart1.o(.text) refers to app.o(.text) for App_WaitForReset
    app_usart1.o(.text) refers to app_adc.o(.text) for GetSampleOffset
    app_usart6.o(.text) refers to usart_common.o(.text) for Usart_RxDataHandler
    app_usart6.o(.text) refers to os_time.o(.text) for OSTimeDly
    app_usart6.o(.text) refers to app_adc.o(.text) for GetSampleValues
    app_usart6.o(.text) refers to fflt_clz.o(x$fpl$ffltu) for __aeabi_ui2f
    app_usart6.o(.text) refers to fdiv.o(x$fpl$fdiv) for __aeabi_fdiv
    app_usart6.o(.text) refers to miscfnx.o(.text) for Calc_CRCByte
    app_usart6.o(.text) refers to app_usart6.o(.bss) for _tmpRxBuf6
    app_usart6.o(.text) refers to app.o(.bss) for AppInfo
    app_usart6.o(.text) refers to f205_flash.o(.text) for F205_WriteParams
    app_usart6.o(.text) refers to fmul.o(x$fpl$fmul) for __aeabi_fmul
    app_usart6.o(.text) refers to ffixu.o(x$fpl$ffixu) for __aeabi_f2uiz
    app_usart6.o(.text) refers to app.o(.text) for App_WaitForReset
    app_usart6.o(.text) refers to os_cpu_a.o(.text) for OS_CPU_SR_Save
    app_usart6.o(.text) refers to bsp_i2c.o(.text) for sEE_ReadBuffer
    app_usart6.o(.text) refers to app.o(.data) for XferRecIndex
    cstartup.o(STACK) refers (Special) to heapauxi.o(.text) for __use_two_region_memory
    cstartup.o(HEAP) refers (Special) to heapauxi.o(.text) for __use_two_region_memory
    cstartup.o(RESET) refers (Special) to heapauxi.o(.text) for __use_two_region_memory
    cstartup.o(RESET) refers to cstartup.o(STACK) for __initial_sp
    cstartup.o(RESET) refers to cstartup.o(.text) for Reset_Handler
    cstartup.o(RESET) refers to os_cpu_a.o(.text) for OS_CPU_PendSVHandler
    cstartup.o(RESET) refers to os_cpu_c.o(.text) for OS_CPU_SysTickHandler
    cstartup.o(RESET) refers to bsp_int.o(.text) for BSP_IntHandlerWWDG
    cstartup.o(.text) refers (Special) to heapauxi.o(.text) for __use_two_region_memory
    cstartup.o(.text) refers to system_stm32f2xx.o(.text) for SystemInit
    cstartup.o(.text) refers to __main.o(!!!main) for __main
    cstartup.o(.text) refers to cstartup.o(HEAP) for Heap_Mem
    cstartup.o(.text) refers to cstartup.o(STACK) for Stack_Mem
    bsp.o(.text) refers to rt_memclr_w.o(.text) for __aeabi_memclr4
    bsp.o(.text) refers to stm32f2xx_usart.o(.text) for USART_DeInit
    bsp.o(.text) refers to bsp_usart.o(.text) for BSP_USART_Init
    bsp.o(.text) refers to bsp_int.o(.text) for BSP_IntInit
    bsp.o(.text) refers to bsp_gpio.o(.text) for BSP_GPIO_Init
    bsp.o(.text) refers to bsp_led.o(.text) for BSP_LED_Init
    bsp.o(.text) refers to bsp_adc.o(.text) for BSP_ADC_Init
    bsp.o(.text) refers to os_sem.o(.text) for OSSemCreate
    bsp.o(.text) refers to bsp_i2c.o(.text) for BSP_InitI2C1
    bsp.o(.text) refers to bsp_tm3.o(.text) for BSP_Tm3_Init
    bsp.o(.text) refers to stm32f2xx_rcc.o(.text) for RCC_AHB2PeriphClockCmd
    bsp.o(.text) refers to os_cpu_c.o(.text) for OS_CPU_SysTickInit
    bsp.o(.text) refers to cpu_core.o(.text) for CPU_TS_TmrFreqSet
    bsp.o(.text) refers to bsp.o(.bss) for BSP_Info
    bsp.o(.text) refers to bsp.o(.constdata) for USART_BaudRate
    bsp.o(.text) refers to bsp_usart.o(.data) for COM_USART
    bsp.o(.text) refers to bsp_usart.o(.bss) for Sem_UsartTxRdy
    bsp_int.o(.text) refers to cpu_c.o(.text) for CPU_IntSrcDis
    bsp_int.o(.text) refers to cpu_a.o(.text) for CPU_IntDis
    bsp_int.o(.text) refers to os_core.o(.text) for OSIntEnter
    bsp_int.o(.text) refers to bsp_int.o(.bss) for BSP_IntVectTbl
    bsp_os.o(.text) refers to os_sem.o(.text) for OSSemCreate
    bsp_os.o(.text) refers to os_core.o(.text) for OSEventNameSet
    bsp_os.o(.text) refers to os_time.o(.text) for OSTimeDlyHMSM
    bsp_ser.o(.text) refers to stm32f2xx_usart.o(.text) for USART_ReceiveData
    bsp_ser.o(.text) refers to bsp_os.o(.text) for BSP_OS_SemPost
    bsp_ser.o(.text) refers to stm32f2xx_rcc.o(.text) for RCC_AHB1PeriphClockCmd
    bsp_ser.o(.text) refers to stm32f2xx_gpio.o(.text) for GPIO_Init
    bsp_ser.o(.text) refers to bsp_int.o(.text) for BSP_IntVectSet
    bsp_ser.o(.text) refers to c89vsnprintf.o(.text) for __c89vsnprintf
    bsp_ser.o(.text) refers to lib_ascii.o(.text) for ASCII_IsPrint
    bsp_ser.o(.text) refers to bsp_ser.o(.data) for BSP_SerRxData
    bsp_adc.o(.text) refers to stm32f2xx_dma.o(.text) for DMA_ClearITPendingBit
    bsp_adc.o(.text) refers to stm32f2xx_adc.o(.text) for ADC_Init
    bsp_adc.o(.text) refers to stm32f2xx_gpio.o(.text) for GPIO_Init
    bsp_adc.o(.text) refers to stm32f2xx_rcc.o(.text) for RCC_AHB1PeriphClockCmd
    bsp_adc.o(.text) refers to bsp_int.o(.text) for BSP_IntVectSet
    bsp_adc.o(.text) refers to bsp_adc.o(.constdata) for ADC1_Channels
    bsp_adc.o(.text) refers to bsp.o(.bss) for BSP_Info
    bsp_dac.o(.text) refers to stm32f2xx_dma.o(.text) for DMA_ClearITPendingBit
    bsp_dac.o(.text) refers to stm32f2xx_dac.o(.text) for DAC_DMACmd
    bsp_dac.o(.text) refers to stm32f2xx_rcc.o(.text) for RCC_AHB1PeriphClockCmd
    bsp_dac.o(.text) refers to stm32f2xx_gpio.o(.text) for GPIO_Init
    bsp_dac.o(.text) refers to bsp_tm6.o(.text) for BSP_Tm6_Init
    bsp_dac.o(.text) refers to bsp_int.o(.text) for BSP_IntVectSet
    bsp_dac.o(.text) refers to stm32f2xx_tim.o(.text) for TIM_Cmd
    bsp_dac.o(.text) refers to bsp.o(.bss) for BSP_Info
    bsp_dac.o(.text) refers to bsp_dac.o(.bss) for DAC_DMA_InitStructure
    bsp_fsmc_sram.o(.text) refers to stm32f2xx_rcc.o(.text) for RCC_AHB1PeriphClockCmd
    bsp_fsmc_sram.o(.text) refers to stm32f2xx_gpio.o(.text) for GPIO_PinAFConfig
    bsp_fsmc_sram.o(.text) refers to stm32f2xx_fsmc.o(.text) for FSMC_NORSRAMInit
    bsp_can.o(.text) refers to stm32f2xx_rcc.o(.text) for RCC_AHB1PeriphClockCmd
    bsp_can.o(.text) refers to stm32f2xx_gpio.o(.text) for GPIO_Init
    bsp_can.o(.text) refers to stm32f2xx_can.o(.text) for CAN_DeInit
    bsp_can.o(.text) refers to bsp_int.o(.text) for BSP_IntVectSet
    bsp_can.o(.text) refers to bsp_can.o(.constdata) for CAN_TX_PORT_CLK
    bsp_can.o(.text) refers to bsp_can.o(.data) for CAN_RX_PORT
    bsp_can.o(.text) refers to bsp.o(.bss) for BSP_Info
    bsp_can.o(.data) refers to bsp_can.o(.text) for Can1_Isr
    bsp_i2c.o(.text) refers to stm32f2xx_dma.o(.text) for DMA_GetFlagStatus
    bsp_i2c.o(.text) refers to stm32f2xx_i2c.o(.text) for I2C_GenerateSTOP
    bsp_i2c.o(.text) refers to stm32f2xx_rcc.o(.text) for RCC_APB1PeriphClockCmd
    bsp_i2c.o(.text) refers to stm32f2xx_gpio.o(.text) for GPIO_Init
    bsp_i2c.o(.text) refers to bsp_int.o(.text) for BSP_IntVectSet
    bsp_i2c.o(.text) refers to bsp_i2c.o(.data) for sEEDataReadPointer
    bsp_i2c.o(.text) refers to bsp_i2c.o(.bss) for sEEDMA_InitStructure
    bsp_i2c.o(.text) refers to os_time.o(.text) for OSTimeDly
    bsp_spi_flash.o(.text) refers to stm32f2xx_spi.o(.text) for SPI_Cmd
    bsp_spi_flash.o(.text) refers to stm32f2xx_rcc.o(.text) for RCC_APB1PeriphClockCmd
    bsp_spi_flash.o(.text) refers to stm32f2xx_gpio.o(.text) for GPIO_Init
    bsp_gpio.o(.text) refers to stm32f2xx_rcc.o(.text) for RCC_AHB1PeriphClockCmd
    bsp_gpio.o(.text) refers to stm32f2xx_gpio.o(.text) for GPIO_Init
    bsp_gpio.o(.text) refers to stm32f2xx_syscfg.o(.text) for SYSCFG_EXTILineConfig
    bsp_gpio.o(.text) refers to stm32f2xx_exti.o(.text) for EXTI_Init
    bsp_gpio.o(.text) refers to bsp.o(.bss) for BSP_Info
    bsp_led.o(.text) refers to stm32f2xx_rcc.o(.text) for RCC_AHB1PeriphClockCmd
    bsp_led.o(.text) refers to stm32f2xx_gpio.o(.text) for GPIO_Init
    bsp_led.o(.text) refers to bsp_led.o(.constdata) for GPIO_CLK
    bsp_led.o(.text) refers to bsp_led.o(.data) for GPIO_PORT
    bsp_rtc.o(.text) refers to stm32f2xx_rtc.o(.text) for RTC_GetITStatus
    bsp_rtc.o(.text) refers to stm32f2xx_exti.o(.text) for EXTI_ClearITPendingBit
    bsp_rtc.o(.text) refers to stm32f2xx_rcc.o(.text) for RCC_APB1PeriphClockCmd
    bsp_rtc.o(.text) refers to stm32f2xx_pwr.o(.text) for PWR_BackupAccessCmd
    bsp_rtc.o(.text) refers to bsp_int.o(.text) for BSP_IntVectSet
    bsp_rtc.o(.text) refers to bsp_rtc.o(.data) for RTC_TimeStructure
    bsp_rtc.o(.text) refers to bsp.o(.bss) for BSP_Info
    bsp_sd.o(.text) refers to bsp_sdio.o(.text) for SD_LowLevel_DeInit
    bsp_sd.o(.text) refers to stm32f2xx_sdio.o(.text) for SDIO_SendCommand
    bsp_sd.o(.text) refers to bsp_sd.o(.bss) for SDIO_CmdInitStructure
    bsp_sd.o(.text) refers to bsp_sd.o(.data) for RCA
    bsp_sd.o(.text) refers to stm32f2xx_gpio.o(.text) for GPIO_ReadInputDataBit
    bsp_sdio.o(.text) refers to bsp_sd.o(.text) for CmdResp1Error
    bsp_sdio.o(.text) refers to stm32f2xx_sdio.o(.text) for SDIO_ClearITPendingBit
    bsp_sdio.o(.text) refers to stm32f2xx_dma.o(.text) for DMA_ClearFlag
    bsp_sdio.o(.text) refers to bsp_gpio.o(.text) for BSP_DetectSD
    bsp_sdio.o(.text) refers to bsp_int.o(.text) for BSP_IntVectSet
    bsp_sdio.o(.text) refers to stm32f2xx_rcc.o(.text) for RCC_APB2PeriphClockCmd
    bsp_sdio.o(.text) refers to stm32f2xx_gpio.o(.text) for GPIO_PinAFConfig
    bsp_sdio.o(.text) refers to bsp_sd.o(.data) for StopCondition
    bsp_sdio.o(.text) refers to bsp.o(.bss) for BSP_Info
    bsp_sdio.o(.text) refers to bsp_sdio.o(.bss) for SDDMA_InitStructure
    bsp_sdio.o(.text) refers to bsp_sdio.o(.data) for __TmpBuf
    bsp_tm3.o(.text) refers to stm32f2xx_tim.o(.text) for TIM_GetITStatus
    bsp_tm3.o(.text) refers to stm32f2xx_rcc.o(.text) for RCC_APB1PeriphClockCmd
    bsp_tm3.o(.text) refers to bsp_int.o(.text) for BSP_IntVectSet
    bsp_tm3.o(.text) refers to bsp.o(.bss) for BSP_Info
    bsp_tm3.o(.text) refers to system_stm32f2xx.o(.data) for SystemCoreClock
    bsp_tm6.o(.text) refers to stm32f2xx_rcc.o(.text) for RCC_APB1PeriphClockCmd
    bsp_tm6.o(.text) refers to stm32f2xx_tim.o(.text) for TIM_TimeBaseInit
    bsp_tm6.o(.text) refers to system_stm32f2xx.o(.data) for SystemCoreClock
    bsp_usart.o(.text) refers to stm32f2xx_rcc.o(.text) for RCC_AHB1PeriphClockCmd
    bsp_usart.o(.text) refers to stm32f2xx_dma.o(.text) for DMA_Init
    bsp_usart.o(.text) refers to stm32f2xx_usart.o(.text) for USART_DMACmd
    bsp_usart.o(.text) refers to stm32f2xx_gpio.o(.text) for GPIO_PinAFConfig
    bsp_usart.o(.text) refers to bsp_int.o(.text) for BSP_IntVectSet
    bsp_usart.o(.text) refers to bsp_gpio.o(.text) for BSP_EnableUsartTx
    bsp_usart.o(.text) refers to os_sem.o(.text) for OSSemPost
    bsp_usart.o(.text) refers to bsp_usart.o(.constdata) for UsartDmaInfo
    bsp_usart.o(.text) refers to bsp.o(.bss) for BSP_Info
    bsp_usart.o(.text) refers to bsp_usart.o(.data) for COM_USART
    bsp_usart.o(.text) refers to bsp_usart.o(.bss) for Sem_UsartTxRdy
    bsp_usart.o(.data) refers to bsp_usart.o(.text) for Usart1_Dma_Isr
    system_stm32f2xx.o(.text) refers to system_stm32f2xx.o(.data) for SystemCoreClock
    cpu_core.o(.text) refers to cpu_a.o(.text) for CPU_SR_Save
    cpu_core.o(.text) refers to lib_mem.o(.text) for Mem_Clr
    cpu_core.o(.text) refers to bsp.o(.text) for CPU_TS_TmrInit
    cpu_core.o(.text) refers to lib_str.o(.text) for Str_Copy_N
    cpu_core.o(.text) refers to llushr.o(.text) for __aeabi_llsr
    cpu_core.o(.text) refers to cpu_core.o(.bss) for CPU_Name
    cpu_core.o(.text) refers to cpu_core.o(.data) for CPU_TS_TmrFreq_Hz
    cpu_core.o(.text) refers to cpu_core.o(.constdata) for CPU_CntLeadZerosTbl
    cpu_c.o(.text) refers to cpu_a.o(.text) for CPU_SR_Save
    lib_math.o(.text) refers to cpu_a.o(.text) for CPU_SR_Save
    lib_math.o(.text) refers to lib_math.o(.data) for Math_RandSeedCur
    lib_mem.o(.text) refers to lib_mem_a.o(.text) for Mem_Copy
    lib_str.o(.text) refers to lib_ascii.o(.text) for ASCII_ToLower
    lib_str.o(.text) refers to lib_str.o(.constdata) for Str_MultOvfThTbl_Int32U
    os_core.o(.text) refers to os_cpu_a.o(.text) for OS_CPU_SR_Save
    os_core.o(.text) refers to os_core.o(.data) for OSIntNesting
    os_core.o(.text) refers to os_core.o(.constdata) for OSUnMapTbl
    os_core.o(.text) refers to os_core.o(.bss) for OSTCBPrioTbl
    os_core.o(.text) refers to os_task.o(.text) for OSTaskStkChk
    os_core.o(.text) refers to os_time.o(.text) for OSTimeDly
    os_core.o(.text) refers to os_cpu_c.o(.text) for OSTaskStatHook
    os_core.o(.text) refers to os_flag.o(.text) for OS_FlagInit
    os_core.o(.text) refers to os_mem.o(.text) for OS_MemInit
    os_core.o(.text) refers to os_q.o(.text) for OS_QInit
    os_core.o(.text) refers to os_tmr.o(.text) for OSTmr_Init
    os_core.o(.text) refers to os_dbg.o(.text) for OSDebugInit
    os_flag.o(.text) refers to os_cpu_a.o(.text) for OS_CPU_SR_Save
    os_flag.o(.text) refers to os_core.o(.text) for OS_Sched
    os_flag.o(.text) refers to os_core.o(.data) for OSIntNesting
    os_flag.o(.text) refers to os_core.o(.bss) for OSFlagTbl
    os_mbox.o(.text) refers to os_cpu_a.o(.text) for OS_CPU_SR_Save
    os_mbox.o(.text) refers to os_core.o(.text) for OS_EventWaitListInit
    os_mbox.o(.text) refers to os_core.o(.data) for OSIntNesting
    os_mem.o(.text) refers to os_cpu_a.o(.text) for OS_CPU_SR_Save
    os_mem.o(.text) refers to os_core.o(.text) for OS_StrLen
    os_mem.o(.text) refers to os_core.o(.data) for OSMemFreeList
    os_mem.o(.text) refers to os_core.o(.bss) for OSMemTbl
    os_mutex.o(.text) refers to os_cpu_a.o(.text) for OS_CPU_SR_Save
    os_mutex.o(.text) refers to os_core.o(.text) for OS_EventWaitListInit
    os_mutex.o(.text) refers to os_core.o(.data) for OSIntNesting
    os_mutex.o(.text) refers to os_core.o(.bss) for OSTCBPrioTbl
    os_q.o(.text) refers to os_cpu_a.o(.text) for OS_CPU_SR_Save
    os_q.o(.text) refers to os_core.o(.text) for OS_EventWaitListInit
    os_q.o(.text) refers to os_core.o(.data) for OSIntNesting
    os_q.o(.text) refers to os_core.o(.bss) for OSQTbl
    os_sem.o(.text) refers to os_cpu_a.o(.text) for OS_CPU_SR_Save
    os_sem.o(.text) refers to os_core.o(.text) for OS_EventWaitListInit
    os_sem.o(.text) refers to os_core.o(.data) for OSIntNesting
    os_task.o(.text) refers to os_cpu_a.o(.text) for OS_CPU_SR_Save
    os_task.o(.text) refers to os_core.o(.text) for OS_Sched
    os_task.o(.text) refers to os_cpu_c.o(.text) for OSTaskStkInit
    os_task.o(.text) refers to os_flag.o(.text) for OS_FlagUnlink
    os_task.o(.text) refers to os_core.o(.bss) for OSTCBPrioTbl
    os_task.o(.text) refers to os_core.o(.data) for OSTCBCur
    os_time.o(.text) refers to os_cpu_a.o(.text) for OS_CPU_SR_Save
    os_time.o(.text) refers to os_core.o(.text) for OS_Sched
    os_time.o(.text) refers to os_core.o(.data) for OSIntNesting
    os_time.o(.text) refers to os_core.o(.bss) for OSTCBPrioTbl
    os_tmr.o(.text) refers to os_core.o(.text) for OSSchedLock
    os_tmr.o(.text) refers to os_core.o(.data) for OSTmrFreeList
    os_tmr.o(.text) refers to os_core.o(.bss) for OSTmrWheelTbl
    os_tmr.o(.text) refers to os_sem.o(.text) for OSSemPost
    os_tmr.o(.text) refers to os_task.o(.text) for OSTaskCreateExt
    os_dbg.o(.text) refers to os_dbg.o(.constdata) for OSDebugEn
    os_dbg.o(.text) refers to os_core.o(.bss) for OSTmrTbl
    os_cpu_c.o(.text) refers to app_hooks.o(.text) for App_TaskCreateHook
    os_cpu_c.o(.text) refers to os_tmr.o(.text) for OSTmrSignal
    os_cpu_c.o(.text) refers to os_cpu_a.o(.text) for OS_CPU_SR_Save
    os_cpu_c.o(.text) refers to os_core.o(.text) for OSTimeTick
    os_cpu_c.o(.text) refers to os_cpu_c.o(.bss) for OS_CPU_ExceptStk
    os_cpu_c.o(.text) refers to os_cpu_c.o(.data) for OS_CPU_ExceptStkBase
    os_cpu_c.o(.text) refers to os_task.o(.text) for OS_TaskReturn
    os_cpu_c.o(.text) refers to os_core.o(.data) for OSIntNesting
    os_cpu_a.o(.text) refers to os_cpu_c.o(.data) for OS_CPU_ExceptStkBase
    os_cpu_a.o(.text) refers to os_core.o(.data) for OSRunning
    os_cpu_a.o(.text) refers to os_cpu_c.o(.text) for OSTaskSwHook
    stm32f2xx_adc.o(.text) refers to stm32f2xx_rcc.o(.text) for RCC_APB2PeriphResetCmd
    stm32f2xx_can.o(.text) refers to stm32f2xx_rcc.o(.text) for RCC_APB1PeriphResetCmd
    stm32f2xx_cryp.o(.text) refers to stm32f2xx_rcc.o(.text) for RCC_AHB2PeriphResetCmd
    stm32f2xx_cryp_aes.o(.text) refers to stm32f2xx_cryp.o(.text) for CRYP_KeyStructInit
    stm32f2xx_cryp_des.o(.text) refers to stm32f2xx_cryp.o(.text) for CRYP_KeyStructInit
    stm32f2xx_cryp_tdes.o(.text) refers to stm32f2xx_cryp.o(.text) for CRYP_KeyStructInit
    stm32f2xx_dac.o(.text) refers to stm32f2xx_rcc.o(.text) for RCC_APB1PeriphResetCmd
    stm32f2xx_gpio.o(.text) refers to stm32f2xx_rcc.o(.text) for RCC_AHB1PeriphResetCmd
    stm32f2xx_hash.o(.text) refers to stm32f2xx_rcc.o(.text) for RCC_AHB2PeriphResetCmd
    stm32f2xx_hash_md5.o(.text) refers to stm32f2xx_hash.o(.text) for HASH_DeInit
    stm32f2xx_hash_sha1.o(.text) refers to stm32f2xx_hash.o(.text) for HASH_DeInit
    stm32f2xx_i2c.o(.text) refers to stm32f2xx_rcc.o(.text) for RCC_APB1PeriphResetCmd
    stm32f2xx_pwr.o(.text) refers to stm32f2xx_rcc.o(.text) for RCC_APB1PeriphResetCmd
    stm32f2xx_rcc.o(.text) refers to stm32f2xx_rcc.o(.data) for APBAHBPrescTable
    stm32f2xx_rng.o(.text) refers to stm32f2xx_rcc.o(.text) for RCC_AHB2PeriphResetCmd
    stm32f2xx_sdio.o(.text) refers to stm32f2xx_rcc.o(.text) for RCC_APB2PeriphResetCmd
    stm32f2xx_spi.o(.text) refers to stm32f2xx_rcc.o(.text) for RCC_APB2PeriphResetCmd
    stm32f2xx_syscfg.o(.text) refers to stm32f2xx_rcc.o(.text) for RCC_APB2PeriphResetCmd
    stm32f2xx_tim.o(.text) refers to stm32f2xx_rcc.o(.text) for RCC_APB2PeriphResetCmd
    stm32f2xx_usart.o(.text) refers to stm32f2xx_rcc.o(.text) for RCC_APB2PeriphResetCmd
    stm32f2xx_wwdg.o(.text) refers to stm32f2xx_rcc.o(.text) for RCC_APB1PeriphResetCmd
    c89vsnprintf.o(.text) refers (Special) to _printf_a.o(.ARM.Collect$$_printf_percent$$00000006) for _printf_a
    c89vsnprintf.o(.text) refers (Special) to _printf_c.o(.ARM.Collect$$_printf_percent$$00000013) for _printf_c
    c89vsnprintf.o(.text) refers (Special) to _printf_charcount.o(.text) for _printf_charcount
    c89vsnprintf.o(.text) refers (Special) to _printf_d.o(.ARM.Collect$$_printf_percent$$00000009) for _printf_d
    c89vsnprintf.o(.text) refers (Special) to _printf_e.o(.ARM.Collect$$_printf_percent$$00000004) for _printf_e
    c89vsnprintf.o(.text) refers (Special) to _printf_f.o(.ARM.Collect$$_printf_percent$$00000003) for _printf_f
    c89vsnprintf.o(.text) refers (Special) to printf1.o(x$fpl$printf1) for _printf_fp_dec
    c89vsnprintf.o(.text) refers (Special) to _printf_g.o(.ARM.Collect$$_printf_percent$$00000005) for _printf_g
    c89vsnprintf.o(.text) refers (Special) to _printf_i.o(.ARM.Collect$$_printf_percent$$00000008) for _printf_i
    c89vsnprintf.o(.text) refers (Special) to _printf_dec.o(.text) for _printf_int_dec
    c89vsnprintf.o(.text) refers (Special) to _printf_l.o(.ARM.Collect$$_printf_percent$$00000012) for _printf_l
    c89vsnprintf.o(.text) refers (Special) to _printf_lc.o(.ARM.Collect$$_printf_percent$$00000015) for _printf_lc
    c89vsnprintf.o(.text) refers (Special) to _printf_ll.o(.ARM.Collect$$_printf_percent$$00000007) for _printf_ll
    c89vsnprintf.o(.text) refers (Special) to _printf_lld.o(.ARM.Collect$$_printf_percent$$0000000E) for _printf_lld
    c89vsnprintf.o(.text) refers (Special) to _printf_lli.o(.ARM.Collect$$_printf_percent$$0000000D) for _printf_lli
    c89vsnprintf.o(.text) refers (Special) to _printf_llo.o(.ARM.Collect$$_printf_percent$$00000010) for _printf_llo
    c89vsnprintf.o(.text) refers (Special) to _printf_llu.o(.ARM.Collect$$_printf_percent$$0000000F) for _printf_llu
    c89vsnprintf.o(.text) refers (Special) to _printf_llx.o(.ARM.Collect$$_printf_percent$$00000011) for _printf_llx
    c89vsnprintf.o(.text) refers (Special) to _printf_longlong_dec.o(.text) for _printf_longlong_dec
    c89vsnprintf.o(.text) refers (Special) to _printf_hex_int_ll_ptr.o(.text) for _printf_longlong_hex
    c89vsnprintf.o(.text) refers (Special) to _printf_oct_int_ll.o(.text) for _printf_longlong_oct
    c89vsnprintf.o(.text) refers (Special) to _printf_ls.o(.ARM.Collect$$_printf_percent$$00000016) for _printf_ls
    c89vsnprintf.o(.text) refers (Special) to _printf_n.o(.ARM.Collect$$_printf_percent$$00000001) for _printf_n
    c89vsnprintf.o(.text) refers (Special) to _printf_o.o(.ARM.Collect$$_printf_percent$$0000000B) for _printf_o
    c89vsnprintf.o(.text) refers (Special) to _printf_p.o(.ARM.Collect$$_printf_percent$$00000002) for _printf_p
    c89vsnprintf.o(.text) refers (Special) to _printf_percent.o(.ARM.Collect$$_printf_percent$$00000000) for _printf_percent
    c89vsnprintf.o(.text) refers (Special) to _printf_pad.o(.text) for _printf_post_padding
    c89vsnprintf.o(.text) refers (Special) to _printf_s.o(.ARM.Collect$$_printf_percent$$00000014) for _printf_s
    c89vsnprintf.o(.text) refers (Special) to _printf_str.o(.text) for _printf_str
    c89vsnprintf.o(.text) refers (Special) to _printf_truncate.o(.text) for _printf_truncate_signed
    c89vsnprintf.o(.text) refers (Special) to _printf_u.o(.ARM.Collect$$_printf_percent$$0000000A) for _printf_u
    c89vsnprintf.o(.text) refers (Special) to _printf_wctomb.o(.text) for _printf_wctomb
    c89vsnprintf.o(.text) refers (Special) to _printf_x.o(.ARM.Collect$$_printf_percent$$0000000C) for _printf_x
    c89vsnprintf.o(.text) refers to _printf_char_common.o(.text) for _printf_char_common
    c89vsnprintf.o(.text) refers to _sputc.o(.text) for _sputc
    c89vsnprintf.o(.text) refers to _snputc.o(.text) for _snputc
    rt_memclr.o(.text) refers to rt_memclr_w.o(.text) for _memset_w
    __main.o(!!!main) refers to rtentry.o(.ARM.Collect$$rtentry$$00000000) for __rt_entry
    fdiv.o(x$fpl$frdiv) refers (Special) to usenofp.o(x$fpl$usenofp) for __I$use$fp
    fdiv.o(x$fpl$frdiv) refers to fdiv.o(x$fpl$fdiv) for _fdiv1
    fdiv.o(x$fpl$fdiv) refers (Special) to usenofp.o(x$fpl$usenofp) for __I$use$fp
    fdiv.o(x$fpl$fdiv) refers to fretinf.o(x$fpl$fretinf) for __fpl_fretinf
    fdiv.o(x$fpl$fdiv) refers to fnaninf.o(x$fpl$fnaninf) for __fpl_fnaninf
    ffixu.o(x$fpl$ffixu) refers (Special) to usenofp.o(x$fpl$usenofp) for __I$use$fp
    ffixu.o(x$fpl$ffixu) refers to fnaninf.o(x$fpl$fnaninf) for __fpl_fnaninf
    ffixu.o(x$fpl$ffixur) refers (Special) to usenofp.o(x$fpl$usenofp) for __I$use$fp
    ffixu.o(x$fpl$ffixur) refers to fnaninf.o(x$fpl$fnaninf) for __fpl_fnaninf
    fflt_clz.o(x$fpl$ffltu) refers (Special) to usenofp.o(x$fpl$usenofp) for __I$use$fp
    fflt_clz.o(x$fpl$fflt) refers (Special) to usenofp.o(x$fpl$usenofp) for __I$use$fp
    fflt_clz.o(x$fpl$ffltn) refers (Special) to usenofp.o(x$fpl$usenofp) for __I$use$fp
    fleqf.o(x$fpl$fleqf) refers (Special) to usenofp.o(x$fpl$usenofp) for __I$use$fp
    fleqf.o(x$fpl$fleqf) refers to fnaninf.o(x$fpl$fnaninf) for __fpl_fnaninf
    fleqf.o(x$fpl$fleqf) refers to fcmpi.o(x$fpl$fcmpinf) for __fpl_fcmp_Inf
    fmul.o(x$fpl$fmul) refers (Special) to usenofp.o(x$fpl$usenofp) for __I$use$fp
    fmul.o(x$fpl$fmul) refers to fretinf.o(x$fpl$fretinf) for __fpl_fretinf
    fmul.o(x$fpl$fmul) refers to fnaninf.o(x$fpl$fnaninf) for __fpl_fnaninf
    frleqf.o(x$fpl$frleqf) refers (Special) to usenofp.o(x$fpl$usenofp) for __I$use$fp
    frleqf.o(x$fpl$frleqf) refers to fleqf.o(x$fpl$fleqf) for __fpl_fcmple_InfNaN
    rtentry.o(.ARM.Collect$$rtentry$$00000000) refers (Special) to rtentry2.o(.ARM.Collect$$rtentry$$0000000A) for __rt_entry_li
    rtentry.o(.ARM.Collect$$rtentry$$00000000) refers (Special) to rtentry2.o(.ARM.Collect$$rtentry$$0000000D) for __rt_entry_main
    rtentry.o(.ARM.Collect$$rtentry$$00000000) refers (Special) to rtentry2.o(.ARM.Collect$$rtentry$$0000000C) for __rt_entry_postli_1
    rtentry.o(.ARM.Collect$$rtentry$$00000000) refers (Special) to rtentry2.o(.ARM.Collect$$rtentry$$00000009) for __rt_entry_postsh_1
    rtentry.o(.ARM.Collect$$rtentry$$00000000) refers (Special) to rtentry2.o(.ARM.Collect$$rtentry$$00000002) for __rt_entry_presh_1
    rtentry.o(.ARM.Collect$$rtentry$$00000000) refers (Special) to rtentry4.o(.ARM.Collect$$rtentry$$00000004) for __rt_entry_sh
    __printf.o(.text) refers to _printf_percent.o(.ARM.Collect$$_printf_percent$$00000000) for _printf_percent
    _printf_str.o(.text) refers (Special) to _printf_char.o(.text) for _printf_cs_common
    _printf_str.o(.text) refers (Weak) to _printf_pad.o(.text) for _printf_pre_padding
    _printf_str.o(.text) refers (Weak) to _printf_pad.o(.text) for _printf_post_padding
    _printf_dec.o(.text) refers (Weak) to _printf_truncate.o(.text) for _printf_truncate_signed
    _printf_dec.o(.text) refers (Weak) to _printf_truncate.o(.text) for _printf_truncate_unsigned
    _printf_dec.o(.text) refers to _printf_intcommon.o(.text) for _printf_int_common
    _printf_char_common.o(.text) refers to __printf_flags_ss_wp.o(.text) for __printf
    _printf_wctomb.o(.text) refers (Special) to _printf_wchar.o(.text) for _printf_lcs_common
    _printf_wctomb.o(.text) refers to _wcrtomb.o(.text) for _wcrtomb
    _printf_wctomb.o(.text) refers (Weak) to _printf_pad.o(.text) for _printf_pre_padding
    _printf_wctomb.o(.text) refers (Weak) to _printf_pad.o(.text) for _printf_post_padding
    _printf_wctomb.o(.text) refers to _printf_wctomb.o(.constdata) for .constdata
    _printf_wctomb.o(.constdata) refers (Special) to _printf_wchar.o(.text) for _printf_lcs_common
    _printf_longlong_dec.o(.text) refers to lludiv10.o(.text) for _ll_udiv10
    _printf_longlong_dec.o(.text) refers to _printf_intcommon.o(.text) for _printf_int_common
    _printf_oct_ll.o(.text) refers to _printf_intcommon.o(.text) for _printf_int_common
    _printf_oct_int.o(.text) refers (Weak) to _printf_truncate.o(.text) for _printf_truncate_unsigned
    _printf_oct_int.o(.text) refers to _printf_intcommon.o(.text) for _printf_int_common
    _printf_oct_int_ll.o(.text) refers to _printf_intcommon.o(.text) for _printf_int_common
    _printf_oct_int_ll.o(.text) refers (Weak) to _printf_truncate.o(.text) for _printf_truncate_unsigned
    _printf_hex_ll.o(.text) refers to _printf_intcommon.o(.text) for _printf_int_common
    _printf_hex_ll.o(.text) refers to _printf_hex_ll.o(.constdata) for .constdata
    _printf_hex_int.o(.text) refers (Weak) to _printf_truncate.o(.text) for _printf_truncate_unsigned
    _printf_hex_int.o(.text) refers to _printf_intcommon.o(.text) for _printf_int_common
    _printf_hex_int.o(.text) refers to _printf_hex_int.o(.constdata) for .constdata
    _printf_hex_int_ll.o(.text) refers to _printf_intcommon.o(.text) for _printf_int_common
    _printf_hex_int_ll.o(.text) refers (Weak) to _printf_truncate.o(.text) for _printf_truncate_unsigned
    _printf_hex_int_ll.o(.text) refers to _printf_hex_int_ll.o(.constdata) for .constdata
    _printf_hex_ptr.o(.text) refers to _printf_intcommon.o(.text) for _printf_int_common
    _printf_hex_ptr.o(.text) refers to _printf_hex_ptr.o(.constdata) for .constdata
    _printf_hex_int_ptr.o(.text) refers to _printf_intcommon.o(.text) for _printf_int_common
    _printf_hex_int_ptr.o(.text) refers (Weak) to _printf_truncate.o(.text) for _printf_truncate_unsigned
    _printf_hex_int_ptr.o(.text) refers to _printf_hex_int_ptr.o(.constdata) for .constdata
    _printf_hex_ll_ptr.o(.text) refers to _printf_intcommon.o(.text) for _printf_int_common
    _printf_hex_ll_ptr.o(.text) refers to _printf_hex_ll_ptr.o(.constdata) for .constdata
    _printf_hex_int_ll_ptr.o(.text) refers to _printf_intcommon.o(.text) for _printf_int_common
    _printf_hex_int_ll_ptr.o(.text) refers (Weak) to _printf_truncate.o(.text) for _printf_truncate_unsigned
    _printf_hex_int_ll_ptr.o(.text) refers to _printf_hex_int_ll_ptr.o(.constdata) for .constdata
    __printf_flags.o(.text) refers to _printf_percent.o(.ARM.Collect$$_printf_percent$$00000000) for _printf_percent
    __printf_flags.o(.text) refers to __printf_flags.o(.constdata) for .constdata
    __printf_ss.o(.text) refers to _printf_percent.o(.ARM.Collect$$_printf_percent$$00000000) for _printf_percent
    __printf_flags_ss.o(.text) refers to _printf_percent.o(.ARM.Collect$$_printf_percent$$00000000) for _printf_percent
    __printf_flags_ss.o(.text) refers to __printf_flags_ss.o(.constdata) for .constdata
    __printf_wp.o(.text) refers to __printf_wp.o(i._is_digit) for _is_digit
    __printf_wp.o(.text) refers to _printf_percent.o(.ARM.Collect$$_printf_percent$$00000000) for _printf_percent
    __printf_flags_wp.o(.text) refers to __printf_wp.o(i._is_digit) for _is_digit
    __printf_flags_wp.o(.text) refers to _printf_percent.o(.ARM.Collect$$_printf_percent$$00000000) for _printf_percent
    __printf_flags_wp.o(.text) refers to __printf_flags_wp.o(.constdata) for .constdata
    __printf_ss_wp.o(.text) refers to __printf_wp.o(i._is_digit) for _is_digit
    __printf_ss_wp.o(.text) refers to _printf_percent.o(.ARM.Collect$$_printf_percent$$00000000) for _printf_percent
    __printf_flags_ss_wp.o(.text) refers to __printf_wp.o(i._is_digit) for _is_digit
    __printf_flags_ss_wp.o(.text) refers to _printf_percent.o(.ARM.Collect$$_printf_percent$$00000000) for _printf_percent
    __printf_flags_ss_wp.o(.text) refers to __printf_flags_ss_wp.o(.constdata) for .constdata
    _printf_c.o(.ARM.Collect$$_printf_percent$$00000013) refers (Weak) to _printf_char.o(.text) for _printf_char
    _printf_s.o(.ARM.Collect$$_printf_percent$$00000014) refers (Weak) to _printf_char.o(.text) for _printf_string
    _printf_n.o(.ARM.Collect$$_printf_percent$$00000001) refers (Weak) to _printf_charcount.o(.text) for _printf_charcount
    _printf_x.o(.ARM.Collect$$_printf_percent$$0000000C) refers (Weak) to _printf_hex_int_ll_ptr.o(.text) for _printf_int_hex
    _printf_p.o(.ARM.Collect$$_printf_percent$$00000002) refers (Weak) to _printf_hex_int_ll_ptr.o(.text) for _printf_hex_ptr
    _printf_o.o(.ARM.Collect$$_printf_percent$$0000000B) refers (Weak) to _printf_oct_int_ll.o(.text) for _printf_int_oct
    _printf_i.o(.ARM.Collect$$_printf_percent$$00000008) refers (Weak) to _printf_dec.o(.text) for _printf_int_dec
    _printf_d.o(.ARM.Collect$$_printf_percent$$00000009) refers (Weak) to _printf_dec.o(.text) for _printf_int_dec
    _printf_u.o(.ARM.Collect$$_printf_percent$$0000000A) refers (Weak) to _printf_dec.o(.text) for _printf_int_dec
    _printf_f.o(.ARM.Collect$$_printf_percent$$00000003) refers (Weak) to printf1.o(x$fpl$printf1) for _printf_fp_dec
    _printf_e.o(.ARM.Collect$$_printf_percent$$00000004) refers (Weak) to printf1.o(x$fpl$printf1) for _printf_fp_dec
    _printf_g.o(.ARM.Collect$$_printf_percent$$00000005) refers (Weak) to printf1.o(x$fpl$printf1) for _printf_fp_dec
    _printf_percent.o(.ARM.Collect$$_printf_percent$$00000000) refers (Special) to _printf_percent_end.o(.ARM.Collect$$_printf_percent$$00000017) for _printf_percent_end
    _printf_lli.o(.ARM.Collect$$_printf_percent$$0000000D) refers (Special) to _printf_ll.o(.ARM.Collect$$_printf_percent$$00000007) for _printf_ll
    _printf_lli.o(.ARM.Collect$$_printf_percent$$0000000D) refers (Weak) to _printf_longlong_dec.o(.text) for _printf_longlong_dec
    _printf_lld.o(.ARM.Collect$$_printf_percent$$0000000E) refers (Special) to _printf_ll.o(.ARM.Collect$$_printf_percent$$00000007) for _printf_ll
    _printf_lld.o(.ARM.Collect$$_printf_percent$$0000000E) refers (Weak) to _printf_longlong_dec.o(.text) for _printf_longlong_dec
    _printf_llu.o(.ARM.Collect$$_printf_percent$$0000000F) refers (Special) to _printf_ll.o(.ARM.Collect$$_printf_percent$$00000007) for _printf_ll
    _printf_llu.o(.ARM.Collect$$_printf_percent$$0000000F) refers (Weak) to _printf_longlong_dec.o(.text) for _printf_longlong_dec
    _printf_lc.o(.ARM.Collect$$_printf_percent$$00000015) refers (Special) to _printf_l.o(.ARM.Collect$$_printf_percent$$00000012) for _printf_l
    _printf_lc.o(.ARM.Collect$$_printf_percent$$00000015) refers (Weak) to _printf_wchar.o(.text) for _printf_wchar
    _printf_ls.o(.ARM.Collect$$_printf_percent$$00000016) refers (Special) to _printf_l.o(.ARM.Collect$$_printf_percent$$00000012) for _printf_l
    _printf_ls.o(.ARM.Collect$$_printf_percent$$00000016) refers (Weak) to _printf_wchar.o(.text) for _printf_wstring
    _printf_llo.o(.ARM.Collect$$_printf_percent$$00000010) refers (Special) to _printf_ll.o(.ARM.Collect$$_printf_percent$$00000007) for _printf_ll
    _printf_llo.o(.ARM.Collect$$_printf_percent$$00000010) refers (Weak) to _printf_oct_int_ll.o(.text) for _printf_ll_oct
    _printf_llx.o(.ARM.Collect$$_printf_percent$$00000011) refers (Special) to _printf_ll.o(.ARM.Collect$$_printf_percent$$00000007) for _printf_ll
    _printf_llx.o(.ARM.Collect$$_printf_percent$$00000011) refers (Weak) to _printf_hex_int_ll_ptr.o(.text) for _printf_ll_hex
    fcmpi.o(x$fpl$fcmpinf) refers (Special) to usenofp.o(x$fpl$usenofp) for __I$use$fp
    fnaninf.o(x$fpl$fnaninf) refers (Special) to usenofp.o(x$fpl$usenofp) for __I$use$fp
    fretinf.o(x$fpl$fretinf) refers (Special) to usenofp.o(x$fpl$usenofp) for __I$use$fp
    printf1.o(x$fpl$printf1) refers to _printf_fp_dec.o(.text) for _printf_fp_dec_real
    rtentry2.o(.ARM.Collect$$rtentry$$00000008) refers to boardinit2.o(.text) for _platform_post_stackheap_init
    rtentry2.o(.ARM.Collect$$rtentry$$0000000A) refers to libinit.o(.ARM.Collect$$libinit$$00000000) for __rt_lib_init
    rtentry2.o(.ARM.Collect$$rtentry$$0000000B) refers to boardinit3.o(.text) for _platform_post_lib_init
    rtentry2.o(.ARM.Collect$$rtentry$$0000000D) refers to app.o(.text) for main
    rtentry2.o(.ARM.Collect$$rtentry$$0000000D) refers to exit.o(.text) for exit
    rtentry2.o(.ARM.exidx) refers to rtentry2.o(.ARM.Collect$$rtentry$$00000001) for .ARM.Collect$$rtentry$$00000001
    rtentry2.o(.ARM.exidx) refers to rtentry2.o(.ARM.Collect$$rtentry$$00000008) for .ARM.Collect$$rtentry$$00000008
    rtentry2.o(.ARM.exidx) refers to rtentry2.o(.ARM.Collect$$rtentry$$0000000A) for .ARM.Collect$$rtentry$$0000000A
    rtentry2.o(.ARM.exidx) refers to rtentry2.o(.ARM.Collect$$rtentry$$0000000B) for .ARM.Collect$$rtentry$$0000000B
    rtentry2.o(.ARM.exidx) refers to rtentry2.o(.ARM.Collect$$rtentry$$0000000D) for .ARM.Collect$$rtentry$$0000000D
    rtentry4.o(.ARM.Collect$$rtentry$$00000004) refers to sys_stackheap_outer.o(.text) for __user_setup_stackheap
    rtentry4.o(.ARM.exidx) refers to rtentry4.o(.ARM.Collect$$rtentry$$00000004) for .ARM.Collect$$rtentry$$00000004
    _printf_intcommon.o(.text) refers (Weak) to _printf_pad.o(.text) for _printf_pre_padding
    _printf_intcommon.o(.text) refers (Weak) to _printf_pad.o(.text) for _printf_pre_padding
    _printf_intcommon.o(.text) refers (Weak) to _printf_pad.o(.text) for _printf_post_padding
    _printf_fp_dec.o(.text) refers (Special) to usenofp.o(x$fpl$usenofp) for __I$use$fp
    _printf_fp_dec.o(.text) refers (Special) to lc_numeric_c.o(locale$$code) for _get_lc_numeric
    _printf_fp_dec.o(.text) refers to bigflt0.o(.text) for _btod_etento
    _printf_fp_dec.o(.text) refers to btod.o(CL$$btod_d2e) for _btod_d2e
    _printf_fp_dec.o(.text) refers to btod.o(CL$$btod_ediv) for _btod_ediv
    _printf_fp_dec.o(.text) refers to btod.o(CL$$btod_emul) for _btod_emul
    _printf_fp_dec.o(.text) refers to lludiv10.o(.text) for _ll_udiv10
    _printf_fp_dec.o(.text) refers to fpclassify.o(i.__ARM_fpclassify) for __ARM_fpclassify
    _printf_fp_dec.o(.text) refers to _printf_fp_infnan.o(.text) for _printf_fp_infnan
    _printf_fp_dec.o(.text) refers (Weak) to _printf_pad.o(.text) for _printf_pre_padding
    _printf_fp_dec.o(.text) refers (Weak) to _printf_pad.o(.text) for _printf_pre_padding
    _printf_fp_dec.o(.text) refers to rt_locale_intlibspace.o(.text) for __rt_locale
    _printf_fp_dec.o(.text) refers (Weak) to _printf_pad.o(.text) for _printf_post_padding
    _printf_char.o(.text) refers (Weak) to _printf_str.o(.text) for _printf_str
    _printf_wchar.o(.text) refers (Weak) to _printf_wctomb.o(.text) for _printf_wctomb
    _wcrtomb.o(.text) refers to rt_ctype_table.o(.text) for __rt_ctype_table
    sys_stackheap_outer.o(.text) refers to libspace.o(.text) for __user_perproc_libspace
    sys_stackheap_outer.o(.text) refers to cstartup.o(.text) for __user_initial_stackheap
    rt_ctype_table.o(.text) refers to rt_locale_intlibspace.o(.text) for __rt_locale
    rt_ctype_table.o(.text) refers to lc_ctype_c.o(locale$$code) for _get_lc_ctype
    rt_locale.o(.text) refers to rt_locale.o(.bss) for __rt_locale_data
    rt_locale_intlibspace.o(.text) refers to libspace.o(.bss) for __libspace_start
    _printf_fp_infnan.o(.text) refers (Weak) to _printf_pad.o(.text) for _printf_pre_padding
    _printf_fp_infnan.o(.text) refers (Weak) to _printf_pad.o(.text) for _printf_post_padding
    bigflt0.o(.text) refers (Special) to usenofp.o(x$fpl$usenofp) for __I$use$fp
    bigflt0.o(.text) refers to btod.o(CL$$btod_emul) for _btod_emul
    bigflt0.o(.text) refers to btod.o(CL$$btod_ediv) for _btod_ediv
    bigflt0.o(.text) refers to bigflt0.o(.constdata) for .constdata
    bigflt0.o(.constdata) refers (Special) to usenofp.o(x$fpl$usenofp) for __I$use$fp
    btod.o(CL$$btod_d2e) refers (Special) to usenofp.o(x$fpl$usenofp) for __I$use$fp
    btod.o(CL$$btod_d2e) refers to btod.o(CL$$btod_d2e_norm_op1) for _d2e_norm_op1
    btod.o(CL$$btod_d2e_norm_op1) refers (Special) to usenofp.o(x$fpl$usenofp) for __I$use$fp
    btod.o(CL$$btod_d2e_norm_op1) refers to btod.o(CL$$btod_d2e_denorm_low) for _d2e_denorm_low
    btod.o(CL$$btod_d2e_denorm_low) refers (Special) to usenofp.o(x$fpl$usenofp) for __I$use$fp
    btod.o(CL$$btod_emul) refers (Special) to usenofp.o(x$fpl$usenofp) for __I$use$fp
    btod.o(CL$$btod_emul) refers to btod.o(CL$$btod_mult_common) for __btod_mult_common
    btod.o(CL$$btod_emul) refers to btod.o(CL$$btod_e2e) for _e2e
    btod.o(CL$$btod_ediv) refers (Special) to usenofp.o(x$fpl$usenofp) for __I$use$fp
    btod.o(CL$$btod_ediv) refers to btod.o(CL$$btod_div_common) for __btod_div_common
    btod.o(CL$$btod_ediv) refers to btod.o(CL$$btod_e2e) for _e2e
    btod.o(CL$$btod_emuld) refers (Special) to usenofp.o(x$fpl$usenofp) for __I$use$fp
    btod.o(CL$$btod_emuld) refers to btod.o(CL$$btod_mult_common) for __btod_mult_common
    btod.o(CL$$btod_emuld) refers to btod.o(CL$$btod_e2d) for _e2d
    btod.o(CL$$btod_edivd) refers (Special) to usenofp.o(x$fpl$usenofp) for __I$use$fp
    btod.o(CL$$btod_edivd) refers to btod.o(CL$$btod_div_common) for __btod_div_common
    btod.o(CL$$btod_edivd) refers to btod.o(CL$$btod_e2d) for _e2d
    btod.o(CL$$btod_e2e) refers (Special) to usenofp.o(x$fpl$usenofp) for __I$use$fp
    btod.o(CL$$btod_e2d) refers (Special) to usenofp.o(x$fpl$usenofp) for __I$use$fp
    btod.o(CL$$btod_e2d) refers to btod.o(CL$$btod_e2e) for _e2e
    btod.o(CL$$btod_mult_common) refers (Special) to usenofp.o(x$fpl$usenofp) for __I$use$fp
    btod.o(CL$$btod_div_common) refers (Special) to usenofp.o(x$fpl$usenofp) for __I$use$fp
    lc_numeric_c.o(locale$$data) refers (Special) to libinit2.o(.ARM.Collect$$libinit$$00000012) for __rt_lib_init_lc_numeric_2
    lc_numeric_c.o(locale$$code) refers (Special) to libinit2.o(.ARM.Collect$$libinit$$00000012) for __rt_lib_init_lc_numeric_2
    lc_numeric_c.o(locale$$code) refers to strcmpv7m.o(.text) for strcmp
    lc_numeric_c.o(locale$$code) refers to lc_numeric_c.o(locale$$data) for __lcnum_c_name
    exit.o(.text) refers to rtexit.o(.ARM.Collect$$rtexit$$00000000) for __rt_exit
    libinit.o(.ARM.Collect$$libinit$$00000000) refers (Special) to libinit2.o(.ARM.Collect$$libinit$$0000002A) for __rt_lib_init_alloca_1
    libinit.o(.ARM.Collect$$libinit$$00000000) refers (Special) to libinit2.o(.ARM.Collect$$libinit$$00000028) for __rt_lib_init_argv_1
    libinit.o(.ARM.Collect$$libinit$$00000000) refers (Special) to libinit2.o(.ARM.Collect$$libinit$$00000017) for __rt_lib_init_atexit_1
    libinit.o(.ARM.Collect$$libinit$$00000000) refers (Special) to libinit2.o(.ARM.Collect$$libinit$$0000001D) for __rt_lib_init_clock_1
    libinit.o(.ARM.Collect$$libinit$$00000000) refers (Special) to libinit2.o(.ARM.Collect$$libinit$$0000002E) for __rt_lib_init_cpp_1
    libinit.o(.ARM.Collect$$libinit$$00000000) refers (Special) to libinit2.o(.ARM.Collect$$libinit$$0000002C) for __rt_lib_init_exceptions_1
    libinit.o(.ARM.Collect$$libinit$$00000000) refers (Special) to libinit2.o(.ARM.Collect$$libinit$$0000001B) for __rt_lib_init_fp_trap_1
    libinit.o(.ARM.Collect$$libinit$$00000000) refers (Special) to libinit2.o(.ARM.Collect$$libinit$$0000001F) for __rt_lib_init_getenv_1
    libinit.o(.ARM.Collect$$libinit$$00000000) refers (Special) to libinit2.o(.ARM.Collect$$libinit$$00000006) for __rt_lib_init_heap_1
    libinit.o(.ARM.Collect$$libinit$$00000000) refers (Special) to libinit2.o(.ARM.Collect$$libinit$$0000000D) for __rt_lib_init_lc_collate_1
    libinit.o(.ARM.Collect$$libinit$$00000000) refers (Special) to libinit2.o(.ARM.Collect$$libinit$$0000000F) for __rt_lib_init_lc_ctype_1
    libinit.o(.ARM.Collect$$libinit$$00000000) refers (Special) to libinit2.o(.ARM.Collect$$libinit$$00000011) for __rt_lib_init_lc_monetary_1
    libinit.o(.ARM.Collect$$libinit$$00000000) refers (Special) to libinit2.o(.ARM.Collect$$libinit$$00000013) for __rt_lib_init_lc_numeric_1
    libinit.o(.ARM.Collect$$libinit$$00000000) refers (Special) to libinit2.o(.ARM.Collect$$libinit$$00000015) for __rt_lib_init_lc_time_1
    libinit.o(.ARM.Collect$$libinit$$00000000) refers (Special) to libinit2.o(.ARM.Collect$$libinit$$0000000A) for __rt_lib_init_rand_1
    libinit.o(.ARM.Collect$$libinit$$00000000) refers (Special) to libinit2.o(.ARM.Collect$$libinit$$0000002F) for __rt_lib_init_return
    libinit.o(.ARM.Collect$$libinit$$00000000) refers (Special) to libinit2.o(.ARM.Collect$$libinit$$00000019) for __rt_lib_init_signal_1
    libinit.o(.ARM.Collect$$libinit$$00000000) refers (Special) to libinit2.o(.ARM.Collect$$libinit$$00000021) for __rt_lib_init_stdio_1
    libinit.o(.ARM.Collect$$libinit$$00000000) refers (Special) to libinit2.o(.ARM.Collect$$libinit$$00000008) for __rt_lib_init_user_alloc_1
    libinit.o(.ARM.Collect$$libinit$$00000000) refers to fpinit.o(x$fpl$fpinit) for _fp_init
    istatus.o(x$fpl$ieeestatus) refers (Special) to usenofp.o(x$fpl$usenofp) for __I$use$fp
    fpclassify.o(i.__ARM_fpclassify) refers (Special) to usenofp.o(x$fpl$usenofp) for __I$use$fp
    libspace.o(.text) refers to libspace.o(.bss) for __libspace_start
    rtexit.o(.ARM.Collect$$rtexit$$00000000) refers (Special) to rtexit2.o(.ARM.Collect$$rtexit$$00000004) for __rt_exit_exit
    rtexit.o(.ARM.Collect$$rtexit$$00000000) refers (Special) to rtexit2.o(.ARM.Collect$$rtexit$$00000003) for __rt_exit_ls
    rtexit.o(.ARM.Collect$$rtexit$$00000000) refers (Special) to rtexit2.o(.ARM.Collect$$rtexit$$00000002) for __rt_exit_prels_1
    rtexit.o(.ARM.exidx) refers (Special) to rtexit2.o(.ARM.Collect$$rtexit$$00000004) for __rt_exit_exit
    rtexit.o(.ARM.exidx) refers (Special) to rtexit2.o(.ARM.Collect$$rtexit$$00000003) for __rt_exit_ls
    rtexit.o(.ARM.exidx) refers (Special) to rtexit2.o(.ARM.Collect$$rtexit$$00000002) for __rt_exit_prels_1
    rtexit.o(.ARM.exidx) refers to rtexit.o(.ARM.Collect$$rtexit$$00000000) for .ARM.Collect$$rtexit$$00000000
    lc_ctype_c.o(locale$$data) refers (Special) to libinit2.o(.ARM.Collect$$libinit$$0000000E) for __rt_lib_init_lc_ctype_2
    lc_ctype_c.o(locale$$code) refers (Special) to libinit2.o(.ARM.Collect$$libinit$$0000000E) for __rt_lib_init_lc_ctype_2
    lc_ctype_c.o(locale$$code) refers to strcmpv7m.o(.text) for strcmp
    lc_ctype_c.o(locale$$code) refers to lc_ctype_c.o(locale$$data) for __lcctype_c_name
    libinit2.o(.ARM.Collect$$libinit$$0000000B) refers (Weak) to rt_locale_intlibspace.o(.text) for __rt_locale
    libinit2.o(.ARM.Collect$$libinit$$0000000C) refers to libinit2.o(.ARM.Collect$$libinit$$0000000B) for .ARM.Collect$$libinit$$0000000B
    libinit2.o(.ARM.Collect$$libinit$$0000000E) refers to libinit2.o(.ARM.Collect$$libinit$$0000000B) for .ARM.Collect$$libinit$$0000000B
    libinit2.o(.ARM.Collect$$libinit$$0000000E) refers (Weak) to lc_ctype_c.o(locale$$code) for _get_lc_ctype
    libinit2.o(.ARM.Collect$$libinit$$00000010) refers to libinit2.o(.ARM.Collect$$libinit$$0000000B) for .ARM.Collect$$libinit$$0000000B
    libinit2.o(.ARM.Collect$$libinit$$00000012) refers to libinit2.o(.ARM.Collect$$libinit$$0000000B) for .ARM.Collect$$libinit$$0000000B
    libinit2.o(.ARM.Collect$$libinit$$00000012) refers (Weak) to lc_numeric_c.o(locale$$code) for _get_lc_numeric
    libinit2.o(.ARM.Collect$$libinit$$00000014) refers to libinit2.o(.ARM.Collect$$libinit$$0000000B) for .ARM.Collect$$libinit$$0000000B
    libinit2.o(.ARM.Collect$$libinit$$00000022) refers to argv_veneer.o(.emb_text) for __ARM_argv_veneer
    libinit2.o(.ARM.Collect$$libinit$$00000023) refers to argv_veneer.o(.emb_text) for __ARM_argv_veneer
    fpinit.o(x$fpl$fpinit) refers to rt_fp_status_addr_intlibspace.o(.text) for __rt_fp_status_addr
    rtexit2.o(.ARM.Collect$$rtexit$$00000003) refers to libshutdown.o(.ARM.Collect$$libshutdown$$00000000) for __rt_lib_shutdown
    rtexit2.o(.ARM.Collect$$rtexit$$00000004) refers to sys_exit.o(.text) for _sys_exit
    rtexit2.o(.ARM.exidx) refers to rtexit2.o(.ARM.Collect$$rtexit$$00000001) for .ARM.Collect$$rtexit$$00000001
    rtexit2.o(.ARM.exidx) refers to rtexit2.o(.ARM.Collect$$rtexit$$00000003) for .ARM.Collect$$rtexit$$00000003
    rtexit2.o(.ARM.exidx) refers to rtexit2.o(.ARM.Collect$$rtexit$$00000004) for .ARM.Collect$$rtexit$$00000004
    rt_fp_status_addr.o(.text) refers to rt_fp_status_addr.o(.bss) for __rt_fp_status_addr_data
    rt_fp_status_addr_intlibspace.o(.text) refers to libspace.o(.bss) for __libspace_start
    argv_veneer.o(.emb_text) refers to no_argv.o(.text) for __ARM_get_argv
    sys_exit.o(.text) refers (Special) to use_no_semi.o(.text) for __I$use$semihosting
    sys_exit.o(.text) refers (Special) to indicate_semi.o(.text) for __semihosting_library_function
    _get_argv_nomalloc.o(.text) refers (Special) to hrguard.o(.text) for __heap_region$guard
    _get_argv_nomalloc.o(.text) refers to defsig_rtmem_outer.o(.text) for __rt_SIGRTMEM
    _get_argv_nomalloc.o(.text) refers to sys_command.o(.text) for _sys_command_string
    libshutdown.o(.ARM.Collect$$libshutdown$$00000000) refers (Special) to libshutdown2.o(.ARM.Collect$$libshutdown$$00000006) for __rt_lib_shutdown_fp_trap_1
    libshutdown.o(.ARM.Collect$$libshutdown$$00000000) refers (Special) to libshutdown2.o(.ARM.Collect$$libshutdown$$0000000E) for __rt_lib_shutdown_heap_1
    libshutdown.o(.ARM.Collect$$libshutdown$$00000000) refers (Special) to libshutdown2.o(.ARM.Collect$$libshutdown$$0000000F) for __rt_lib_shutdown_return
    libshutdown.o(.ARM.Collect$$libshutdown$$00000000) refers (Special) to libshutdown2.o(.ARM.Collect$$libshutdown$$00000009) for __rt_lib_shutdown_signal_1
    libshutdown.o(.ARM.Collect$$libshutdown$$00000000) refers (Special) to libshutdown2.o(.ARM.Collect$$libshutdown$$00000003) for __rt_lib_shutdown_stdio_1
    libshutdown.o(.ARM.Collect$$libshutdown$$00000000) refers (Special) to libshutdown2.o(.ARM.Collect$$libshutdown$$0000000B) for __rt_lib_shutdown_user_alloc_1
    sys_command.o(.text) refers (Special) to use_no_semi.o(.text) for __I$use$semihosting
    sys_command.o(.text) refers (Special) to indicate_semi.o(.text) for __semihosting_library_function
    defsig_rtmem_outer.o(.text) refers to defsig_rtmem_inner.o(.text) for __rt_SIGRTMEM_inner
    defsig_rtmem_outer.o(.text) refers to defsig_exit.o(.text) for __sig_exit
    defsig_rtmem_formal.o(.text) refers to rt_raise.o(.text) for __rt_raise
    rt_raise.o(.text) refers to __raise.o(.text) for __raise
    rt_raise.o(.text) refers to sys_exit.o(.text) for _sys_exit
    defsig_exit.o(.text) refers to sys_exit.o(.text) for _sys_exit
    defsig_rtmem_inner.o(.text) refers to defsig_general.o(.text) for __default_signal_display
    __raise.o(.text) refers to defsig.o(CL$$defsig) for __default_signal_handler
    defsig_general.o(.text) refers to sys_wrch.o(.text) for _ttywrch
    sys_wrch.o(.text) refers (Special) to use_no_semi.o(.text) for __I$use$semihosting
    sys_wrch.o(.text) refers (Special) to indicate_semi.o(.text) for __semihosting_library_function
    defsig.o(CL$$defsig) refers to defsig_rtmem_inner.o(.text) for __rt_SIGRTMEM_inner
    defsig_abrt_inner.o(.text) refers to defsig_general.o(.text) for __default_signal_display
    defsig_fpe_inner.o(.text) refers to defsig_general.o(.text) for __default_signal_display
    defsig_rtred_inner.o(.text) refers to defsig_general.o(.text) for __default_signal_display
    defsig_stak_inner.o(.text) refers to defsig_general.o(.text) for __default_signal_display
    defsig_pvfn_inner.o(.text) refers to defsig_general.o(.text) for __default_signal_display
    defsig_cppl_inner.o(.text) refers to defsig_general.o(.text) for __default_signal_display
    defsig_segv_inner.o(.text) refers to defsig_general.o(.text) for __default_signal_display
    defsig_other.o(.text) refers to defsig_general.o(.text) for __default_signal_display
    usart_common.o(i._InitRx) refers to usart_common.o(.data) for __DLE
    usart_common.o(i._InitRx) refers to usart_common.o(.bss) for __RxLen
    usart_common.o(i._SetRxData) refers to usart_common.o(i._InitRx) for _InitRx
    usart_common.o(i._SetRxData) refers to usart_common.o(.bss) for __RxLen
    usart_common.o(i._SetRxData) refers to bsp.o(.bss) for BSP_Info
    usart_common.o(i._SetRxData) refers to app.o(.bss) for AppInfo


==============================================================================

Removing Unused input sections from the image.

    Removing app_hooks.o(.emb_text), (8 bytes).
    Removing app.o(.emb_text), (8 bytes).
    Removing sinetable.o(.emb_text), (8 bytes).
    Removing sinetable.o(.constdata), (2400 bytes).
    Removing miscfnx.o(.emb_text), (8 bytes).
    Removing usart_common.o(.emb_text), (8 bytes).
    Removing f205_flash.o(.emb_text), (8 bytes).
    Removing app_led.o(.emb_text), (8 bytes).
    Removing app_hpi.o(.emb_text), (8 bytes).
    Removing app_hpi.o(.text), (8 bytes).
    Removing app_adc.o(.emb_text), (8 bytes).
    Removing app_i2c1.o(.emb_text), (8 bytes).
    Removing app_usart1.o(.emb_text), (8 bytes).
    Removing app_usart1.o(.data), (2 bytes).
    Removing app_usart6.o(.emb_text), (8 bytes).
    Removing bsp.o(.emb_text), (8 bytes).
    Removing bsp_int.o(.emb_text), (8 bytes).
    Removing bsp_os.o(.emb_text), (8 bytes).
    Removing bsp_ser.o(.emb_text), (8 bytes).
    Removing bsp_adc.o(.emb_text), (8 bytes).
    Removing bsp_adc.o(.data), (4 bytes).
    Removing bsp_dac.o(.emb_text), (8 bytes).
    Removing bsp_dac.o(.text), (496 bytes).
    Removing bsp_dac.o(.bss), (60 bytes).
    Removing bsp_fsmc_sram.o(.emb_text), (8 bytes).
    Removing bsp_fsmc_sram.o(.text), (660 bytes).
    Removing bsp_can.o(.emb_text), (8 bytes).
    Removing bsp_can.o(.text), (500 bytes).
    Removing bsp_can.o(.constdata), (48 bytes).
    Removing bsp_can.o(.data), (24 bytes).
    Removing bsp_i2c.o(.emb_text), (8 bytes).
    Removing bsp_spi_flash.o(.emb_text), (8 bytes).
    Removing bsp_spi_flash.o(.text), (1292 bytes).
    Removing bsp_gpio.o(.emb_text), (8 bytes).
    Removing bsp_led.o(.emb_text), (8 bytes).
    Removing bsp_rtc.o(.emb_text), (8 bytes).
    Removing bsp_rtc.o(.text), (520 bytes).
    Removing bsp_rtc.o(.data), (16 bytes).
    Removing bsp_sd.o(.emb_text), (8 bytes).
    Removing bsp_sd.o(.text), (5844 bytes).
    Removing bsp_sd.o(.bss), (196 bytes).
    Removing bsp_sd.o(.data), (20 bytes).
    Removing bsp_sdio.o(.emb_text), (8 bytes).
    Removing bsp_sdio.o(.text), (936 bytes).
    Removing bsp_sdio.o(.bss), (60 bytes).
    Removing bsp_sdio.o(.data), (4 bytes).
    Removing bsp_tm3.o(.emb_text), (8 bytes).
    Removing bsp_tm6.o(.emb_text), (8 bytes).
    Removing bsp_tm6.o(.text), (100 bytes).
    Removing bsp_usart.o(.emb_text), (8 bytes).
    Removing system_stm32f2xx.o(.emb_text), (8 bytes).
    Removing lib_math.o(.text), (132 bytes).
    Removing lib_math.o(.data), (4 bytes).
    Removing os_mbox.o(.text), (1084 bytes).
    Removing os_mutex.o(.text), (1832 bytes).
    Removing misc.o(.emb_text), (8 bytes).
    Removing misc.o(.text), (264 bytes).
    Removing stm32f2xx_adc.o(.emb_text), (8 bytes).
    Removing stm32f2xx_can.o(.emb_text), (8 bytes).
    Removing stm32f2xx_can.o(.text), (2752 bytes).
    Removing stm32f2xx_crc.o(.emb_text), (8 bytes).
    Removing stm32f2xx_crc.o(.text), (80 bytes).
    Removing stm32f2xx_cryp.o(.emb_text), (8 bytes).
    Removing stm32f2xx_cryp.o(.text), (700 bytes).
    Removing stm32f2xx_cryp_aes.o(.emb_text), (8 bytes).
    Removing stm32f2xx_cryp_aes.o(.text), (1748 bytes).
    Removing stm32f2xx_cryp_des.o(.emb_text), (8 bytes).
    Removing stm32f2xx_cryp_des.o(.text), (528 bytes).
    Removing stm32f2xx_cryp_tdes.o(.emb_text), (8 bytes).
    Removing stm32f2xx_cryp_tdes.o(.text), (608 bytes).
    Removing stm32f2xx_dac.o(.emb_text), (8 bytes).
    Removing stm32f2xx_dac.o(.text), (556 bytes).
    Removing stm32f2xx_dbgmcu.o(.emb_text), (8 bytes).
    Removing stm32f2xx_dbgmcu.o(.text), (112 bytes).
    Removing stm32f2xx_dcmi.o(.emb_text), (8 bytes).
    Removing stm32f2xx_dcmi.o(.text), (444 bytes).
    Removing stm32f2xx_dma.o(.emb_text), (8 bytes).
    Removing stm32f2xx_exti.o(.emb_text), (8 bytes).
    Removing stm32f2xx_flash.o(.emb_text), (8 bytes).
    Removing stm32f2xx_fsmc.o(.emb_text), (8 bytes).
    Removing stm32f2xx_fsmc.o(.text), (1668 bytes).
    Removing stm32f2xx_gpio.o(.emb_text), (8 bytes).
    Removing stm32f2xx_hash.o(.emb_text), (8 bytes).
    Removing stm32f2xx_hash.o(.text), (524 bytes).
    Removing stm32f2xx_hash_md5.o(.emb_text), (8 bytes).
    Removing stm32f2xx_hash_md5.o(.text), (578 bytes).
    Removing stm32f2xx_hash_sha1.o(.emb_text), (8 bytes).
    Removing stm32f2xx_hash_sha1.o(.text), (590 bytes).
    Removing stm32f2xx_i2c.o(.emb_text), (8 bytes).
    Removing stm32f2xx_iwdg.o(.emb_text), (8 bytes).
    Removing stm32f2xx_iwdg.o(.text), (68 bytes).
    Removing stm32f2xx_pwr.o(.emb_text), (8 bytes).
    Removing stm32f2xx_pwr.o(.text), (236 bytes).
    Removing stm32f2xx_rcc.o(.emb_text), (8 bytes).
    Removing stm32f2xx_rng.o(.emb_text), (8 bytes).
    Removing stm32f2xx_rng.o(.text), (172 bytes).
    Removing stm32f2xx_rtc.o(.emb_text), (8 bytes).
    Removing stm32f2xx_rtc.o(.text), (3340 bytes).
    Removing stm32f2xx_sdio.o(.emb_text), (8 bytes).
    Removing stm32f2xx_sdio.o(.text), (580 bytes).
    Removing stm32f2xx_spi.o(.emb_text), (8 bytes).
    Removing stm32f2xx_spi.o(.text), (1052 bytes).
    Removing stm32f2xx_syscfg.o(.emb_text), (8 bytes).
    Removing stm32f2xx_tim.o(.emb_text), (8 bytes).
    Removing stm32f2xx_usart.o(.emb_text), (8 bytes).
    Removing stm32f2xx_wwdg.o(.emb_text), (8 bytes).
    Removing stm32f2xx_wwdg.o(.text), (148 bytes).

107 unused section(s) (total 33486 bytes) removed from the image.

==============================================================================

Image Symbol Table

    Local Symbols

    Symbol Name                              Value     Ov Type        Size  Object(Section)

    ../../angel/boardlib.s                   0x00000000   Number         0  boardshut.o ABSOLUTE
    ../../angel/boardlib.s                   0x00000000   Number         0  boardinit3.o ABSOLUTE
    ../../angel/boardlib.s                   0x00000000   Number         0  boardinit1.o ABSOLUTE
    ../../angel/boardlib.s                   0x00000000   Number         0  boardinit2.o ABSOLUTE
    ../../angel/dczerorl2.s                  0x00000000   Number         0  __dczerorl2.o ABSOLUTE
    ../../angel/handlers.s                   0x00000000   Number         0  __scatter_zi.o ABSOLUTE
    ../../angel/kernel.s                     0x00000000   Number         0  rtentry4.o ABSOLUTE
    ../../angel/kernel.s                     0x00000000   Number         0  rtexit.o ABSOLUTE
    ../../angel/kernel.s                     0x00000000   Number         0  rtentry2.o ABSOLUTE
    ../../angel/kernel.s                     0x00000000   Number         0  rtexit2.o ABSOLUTE
    ../../angel/kernel.s                     0x00000000   Number         0  rtentry.o ABSOLUTE
    ../../angel/rt.s                         0x00000000   Number         0  rt_locale_intlibspace.o ABSOLUTE
    ../../angel/rt.s                         0x00000000   Number         0  rt_locale.o ABSOLUTE
    ../../angel/rt.s                         0x00000000   Number         0  rt_fp_status_addr_intlibspace.o ABSOLUTE
    ../../angel/rt.s                         0x00000000   Number         0  rt_raise.o ABSOLUTE
    ../../angel/rt.s                         0x00000000   Number         0  rt_fp_status_addr.o ABSOLUTE
    ../../angel/rt.s                         0x00000000   Number         0  rt_ctype_table.o ABSOLUTE
    ../../angel/scatter.s                    0x00000000   Number         0  __scatter.o ABSOLUTE
    ../../angel/startup.s                    0x00000000   Number         0  __main.o ABSOLUTE
    ../../angel/sys.s                        0x00000000   Number         0  sys_stackheap_outer.o ABSOLUTE
    ../../angel/sys.s                        0x00000000   Number         0  libspace.o ABSOLUTE
    ../../angel/sys.s                        0x00000000   Number         0  use_no_semi.o ABSOLUTE
    ../../angel/sys.s                        0x00000000   Number         0  indicate_semi.o ABSOLUTE
    ../../angel/sysapp.c                     0x00000000   Number         0  sys_exit.o ABSOLUTE
    ../../angel/sysapp.c                     0x00000000   Number         0  sys_wrch.o ABSOLUTE
    ../../angel/sysapp.c                     0x00000000   Number         0  sys_command.o ABSOLUTE
    ../../armsys.c                           0x00000000   Number         0  no_argv.o ABSOLUTE
    ../../armsys.c                           0x00000000   Number         0  _get_argv_nomalloc.o ABSOLUTE
    ../../armsys.c                           0x00000000   Number         0  argv_veneer.o ABSOLUTE
    ../../armsys.c                           0x00000000   Number         0  argv_veneer.o ABSOLUTE
    ../../bigflt.c                           0x00000000   Number         0  bigflt0.o ABSOLUTE
    ../../btod.s                             0x00000000   Number         0  btod.o ABSOLUTE
    ../../fcmpi.s                            0x00000000   Number         0  fcmpi.o ABSOLUTE
    ../../fdiv.s                             0x00000000   Number         0  fdiv.o ABSOLUTE
    ../../ffixu.s                            0x00000000   Number         0  ffixu.o ABSOLUTE
    ../../fflt.s                             0x00000000   Number         0  fflt_clz.o ABSOLUTE
    ../../fleqf.s                            0x00000000   Number         0  fleqf.o ABSOLUTE
    ../../fmul.s                             0x00000000   Number         0  fmul.o ABSOLUTE
    ../../fnaninf.s                          0x00000000   Number         0  fnaninf.o ABSOLUTE
    ../../fpclassify.c                       0x00000000   Number         0  fpclassify.o ABSOLUTE
    ../../fpinit.s                           0x00000000   Number         0  fpinit.o ABSOLUTE
    ../../fretinf.s                          0x00000000   Number         0  fretinf.o ABSOLUTE
    ../../frleqf.s                           0x00000000   Number         0  frleqf.o ABSOLUTE
    ../../heapalloc.c                        0x00000000   Number         0  hrguard.o ABSOLUTE
    ../../heapaux.c                          0x00000000   Number         0  heapauxi.o ABSOLUTE
    ../../istatus.s                          0x00000000   Number         0  istatus.o ABSOLUTE
    ../../libinit.s                          0x00000000   Number         0  libshutdown2.o ABSOLUTE
    ../../libinit.s                          0x00000000   Number         0  libinit2.o ABSOLUTE
    ../../libinit.s                          0x00000000   Number         0  libinit.o ABSOLUTE
    ../../libinit.s                          0x00000000   Number         0  libshutdown.o ABSOLUTE
    ../../locale.c                           0x00000000   Number         0  _wcrtomb.o ABSOLUTE
    ../../locale.s                           0x00000000   Number         0  lc_numeric_c.o ABSOLUTE
    ../../locale.s                           0x00000000   Number         0  lc_ctype_c.o ABSOLUTE
    ../../longlong.s                         0x00000000   Number         0  lludiv10.o ABSOLUTE
    ../../longlong.s                         0x00000000   Number         0  llushr.o ABSOLUTE
    ../../memcpset.s                         0x00000000   Number         0  strcmpv7m.o ABSOLUTE
    ../../memcpset.s                         0x00000000   Number         0  rt_memclr_w.o ABSOLUTE
    ../../memcpset.s                         0x00000000   Number         0  rt_memclr.o ABSOLUTE
    ../../misc.s                             0x00000000   Number         0  printf_stubs.o ABSOLUTE
    ../../printf.c                           0x00000000   Number         0  _printf_fp_dec.o ABSOLUTE
    ../../printf.c                           0x00000000   Number         0  c89vsnprintf.o ABSOLUTE
    ../../printf.c                           0x00000000   Number         0  __printf_wp.o ABSOLUTE
    ../../printf.c                           0x00000000   Number         0  __printf_flags_wp.o ABSOLUTE
    ../../printf.c                           0x00000000   Number         0  __printf_ss_wp.o ABSOLUTE
    ../../printf.c                           0x00000000   Number         0  _printf_intcommon.o ABSOLUTE
    ../../printf.c                           0x00000000   Number         0  __printf_flags_ss.o ABSOLUTE
    ../../printf.c                           0x00000000   Number         0  __printf_flags_ss_wp.o ABSOLUTE
    ../../printf.c                           0x00000000   Number         0  __printf_nopercent.o ABSOLUTE
    ../../printf.c                           0x00000000   Number         0  _printf_fp_infnan.o ABSOLUTE
    ../../printf.c                           0x00000000   Number         0  _printf_char.o ABSOLUTE
    ../../printf.c                           0x00000000   Number         0  __printf.o ABSOLUTE
    ../../printf.c                           0x00000000   Number         0  _printf_pad.o ABSOLUTE
    ../../printf.c                           0x00000000   Number         0  _printf_truncate.o ABSOLUTE
    ../../printf.c                           0x00000000   Number         0  _printf_wchar.o ABSOLUTE
    ../../printf.c                           0x00000000   Number         0  _printf_dec.o ABSOLUTE
    ../../printf.c                           0x00000000   Number         0  _printf_charcount.o ABSOLUTE
    ../../printf.c                           0x00000000   Number         0  _printf_str.o ABSOLUTE
    ../../printf.c                           0x00000000   Number         0  _printf_char_common.o ABSOLUTE
    ../../printf.c                           0x00000000   Number         0  _sputc.o ABSOLUTE
    ../../printf.c                           0x00000000   Number         0  _snputc.o ABSOLUTE
    ../../printf.c                           0x00000000   Number         0  _printf_wctomb.o ABSOLUTE
    ../../printf.c                           0x00000000   Number         0  _printf_oct_int_ll.o ABSOLUTE
    ../../printf.c                           0x00000000   Number         0  _printf_longlong_dec.o ABSOLUTE
    ../../printf.c                           0x00000000   Number         0  _printf_oct_ll.o ABSOLUTE
    ../../printf.c                           0x00000000   Number         0  _printf_oct_int.o ABSOLUTE
    ../../printf.c                           0x00000000   Number         0  _printf_hex_ll.o ABSOLUTE
    ../../printf.c                           0x00000000   Number         0  _printf_hex_int.o ABSOLUTE
    ../../printf.c                           0x00000000   Number         0  _printf_hex_int_ll.o ABSOLUTE
    ../../printf.c                           0x00000000   Number         0  _printf_hex_ptr.o ABSOLUTE
    ../../printf.c                           0x00000000   Number         0  _printf_hex_int_ptr.o ABSOLUTE
    ../../printf.c                           0x00000000   Number         0  _printf_hex_ll_ptr.o ABSOLUTE
    ../../printf.c                           0x00000000   Number         0  _printf_hex_int_ll_ptr.o ABSOLUTE
    ../../printf.c                           0x00000000   Number         0  __printf_flags.o ABSOLUTE
    ../../printf.c                           0x00000000   Number         0  __printf_ss.o ABSOLUTE
    ../../printf1.s                          0x00000000   Number         0  printf1.o ABSOLUTE
    ../../printf_percent.s                   0x00000000   Number         0  _printf_f.o ABSOLUTE
    ../../printf_percent.s                   0x00000000   Number         0  _printf_x.o ABSOLUTE
    ../../printf_percent.s                   0x00000000   Number         0  _printf_p.o ABSOLUTE
    ../../printf_percent.s                   0x00000000   Number         0  _printf_u.o ABSOLUTE
    ../../printf_percent.s                   0x00000000   Number         0  _printf_d.o ABSOLUTE
    ../../printf_percent.s                   0x00000000   Number         0  _printf_llo.o ABSOLUTE
    ../../printf_percent.s                   0x00000000   Number         0  _printf_i.o ABSOLUTE
    ../../printf_percent.s                   0x00000000   Number         0  _printf_l.o ABSOLUTE
    ../../printf_percent.s                   0x00000000   Number         0  _printf_percent_end.o ABSOLUTE
    ../../printf_percent.s                   0x00000000   Number         0  _printf_o.o ABSOLUTE
    ../../printf_percent.s                   0x00000000   Number         0  _printf_a.o ABSOLUTE
    ../../printf_percent.s                   0x00000000   Number         0  _printf_g.o ABSOLUTE
    ../../printf_percent.s                   0x00000000   Number         0  _printf_ls.o ABSOLUTE
    ../../printf_percent.s                   0x00000000   Number         0  _printf_ll.o ABSOLUTE
    ../../printf_percent.s                   0x00000000   Number         0  _printf_llx.o ABSOLUTE
    ../../printf_percent.s                   0x00000000   Number         0  _printf_llu.o ABSOLUTE
    ../../printf_percent.s                   0x00000000   Number         0  _printf_e.o ABSOLUTE
    ../../printf_percent.s                   0x00000000   Number         0  _printf_c.o ABSOLUTE
    ../../printf_percent.s                   0x00000000   Number         0  _printf_lc.o ABSOLUTE
    ../../printf_percent.s                   0x00000000   Number         0  _printf_lld.o ABSOLUTE
    ../../printf_percent.s                   0x00000000   Number         0  _printf_s.o ABSOLUTE
    ../../printf_percent.s                   0x00000000   Number         0  _printf_lli.o ABSOLUTE
    ../../printf_percent.s                   0x00000000   Number         0  _printf_n.o ABSOLUTE
    ../../printf_percent.s                   0x00000000   Number         0  _printf_percent.o ABSOLUTE
    ../../signal.c                           0x00000000   Number         0  defsig_cppl_inner.o ABSOLUTE
    ../../signal.c                           0x00000000   Number         0  defsig_segv_inner.o ABSOLUTE
    ../../signal.c                           0x00000000   Number         0  defsig_other.o ABSOLUTE
    ../../signal.c                           0x00000000   Number         0  defsig_rtmem_outer.o ABSOLUTE
    ../../signal.c                           0x00000000   Number         0  __raise.o ABSOLUTE
    ../../signal.c                           0x00000000   Number         0  defsig_general.o ABSOLUTE
    ../../signal.c                           0x00000000   Number         0  defsig_rtmem_inner.o ABSOLUTE
    ../../signal.c                           0x00000000   Number         0  defsig_exit.o ABSOLUTE
    ../../signal.c                           0x00000000   Number         0  defsig_abrt_inner.o ABSOLUTE
    ../../signal.c                           0x00000000   Number         0  defsig_fpe_inner.o ABSOLUTE
    ../../signal.c                           0x00000000   Number         0  defsig_rtred_inner.o ABSOLUTE
    ../../signal.c                           0x00000000   Number         0  defsig_rtmem_formal.o ABSOLUTE
    ../../signal.c                           0x00000000   Number         0  defsig_stak_inner.o ABSOLUTE
    ../../signal.c                           0x00000000   Number         0  defsig_pvfn_inner.o ABSOLUTE
    ../../signal.s                           0x00000000   Number         0  defsig.o ABSOLUTE
    ../../stdlib.c                           0x00000000   Number         0  exit.o ABSOLUTE
    ../../usenofp.s                          0x00000000   Number         0  usenofp.o ABSOLUTE
    ..\..\uC-CPU\ARM-Cortex-M3\cpu_a.asm     0x00000000   Number         0  cpu_a.o ABSOLUTE
    ..\..\uC-CPU\ARM-Cortex-M3\cpu_c.c       0x00000000   Number         0  cpu_c.o ABSOLUTE
    ..\..\uC-CPU\cpu_core.c                  0x00000000   Number         0  cpu_core.o ABSOLUTE
    ..\..\uC-LIB\Ports\ARM-Cortex-M3\lib_mem_a.asm 0x00000000   Number         0  lib_mem_a.o ABSOLUTE
    ..\..\uC-LIB\lib_ascii.c                 0x00000000   Number         0  lib_ascii.o ABSOLUTE
    ..\..\uC-LIB\lib_math.c                  0x00000000   Number         0  lib_math.o ABSOLUTE
    ..\..\uC-LIB\lib_mem.c                   0x00000000   Number         0  lib_mem.o ABSOLUTE
    ..\..\uC-LIB\lib_str.c                   0x00000000   Number         0  lib_str.o ABSOLUTE
    ..\..\uCOS-II\Ports\ARM-Cortex-M3\os_cpu_a.asm 0x00000000   Number         0  os_cpu_a.o ABSOLUTE
    ..\..\uCOS-II\Ports\ARM-Cortex-M3\os_cpu_c.c 0x00000000   Number         0  os_cpu_c.o ABSOLUTE
    ..\..\uCOS-II\Ports\ARM-Cortex-M3\os_dbg.c 0x00000000   Number         0  os_dbg.o ABSOLUTE
    ..\..\uCOS-II\Source\os_core.c           0x00000000   Number         0  os_core.o ABSOLUTE
    ..\..\uCOS-II\Source\os_flag.c           0x00000000   Number         0  os_flag.o ABSOLUTE
    ..\..\uCOS-II\Source\os_mbox.c           0x00000000   Number         0  os_mbox.o ABSOLUTE
    ..\..\uCOS-II\Source\os_mem.c            0x00000000   Number         0  os_mem.o ABSOLUTE
    ..\..\uCOS-II\Source\os_mutex.c          0x00000000   Number         0  os_mutex.o ABSOLUTE
    ..\..\uCOS-II\Source\os_q.c              0x00000000   Number         0  os_q.o ABSOLUTE
    ..\..\uCOS-II\Source\os_sem.c            0x00000000   Number         0  os_sem.o ABSOLUTE
    ..\..\uCOS-II\Source\os_task.c           0x00000000   Number         0  os_task.o ABSOLUTE
    ..\..\uCOS-II\Source\os_time.c           0x00000000   Number         0  os_time.o ABSOLUTE
    ..\..\uCOS-II\Source\os_tmr.c            0x00000000   Number         0  os_tmr.o ABSOLUTE
    ..\App\F205_Flash.c                      0x00000000   Number         0  f205_flash.o ABSOLUTE
    ..\App\MiscFnx.c                         0x00000000   Number         0  miscfnx.o ABSOLUTE
    ..\App\SineTable.c                       0x00000000   Number         0  sinetable.o ABSOLUTE
    ..\App\Usart_Common.c                    0x00000000   Number         0  usart_common.o ABSOLUTE
    ..\App\app.c                             0x00000000   Number         0  app.o ABSOLUTE
    ..\App\app_HPI.c                         0x00000000   Number         0  app_hpi.o ABSOLUTE
    ..\App\app_adc.c                         0x00000000   Number         0  app_adc.o ABSOLUTE
    ..\App\app_hooks.c                       0x00000000   Number         0  app_hooks.o ABSOLUTE
    ..\App\app_i2c1.c                        0x00000000   Number         0  app_i2c1.o ABSOLUTE
    ..\App\app_led.c                         0x00000000   Number         0  app_led.o ABSOLUTE
    ..\App\app_usart1.c                      0x00000000   Number         0  app_usart1.o ABSOLUTE
    ..\App\app_usart6.c                      0x00000000   Number         0  app_usart6.o ABSOLUTE
    ..\BSP\CMSIS\Device_Support\system_stm32f2xx.c 0x00000000   Number         0  system_stm32f2xx.o ABSOLUTE
    ..\BSP\KeilMDK\cstartup.s                0x00000000   Number         0  cstartup.o ABSOLUTE
    ..\BSP\STM32F2xx\src\misc.c              0x00000000   Number         0  misc.o ABSOLUTE
    ..\BSP\STM32F2xx\src\stm32f2xx_adc.c     0x00000000   Number         0  stm32f2xx_adc.o ABSOLUTE
    ..\BSP\STM32F2xx\src\stm32f2xx_can.c     0x00000000   Number         0  stm32f2xx_can.o ABSOLUTE
    ..\BSP\STM32F2xx\src\stm32f2xx_crc.c     0x00000000   Number         0  stm32f2xx_crc.o ABSOLUTE
    ..\BSP\STM32F2xx\src\stm32f2xx_cryp.c    0x00000000   Number         0  stm32f2xx_cryp.o ABSOLUTE
    ..\BSP\STM32F2xx\src\stm32f2xx_cryp_aes.c 0x00000000   Number         0  stm32f2xx_cryp_aes.o ABSOLUTE
    ..\BSP\STM32F2xx\src\stm32f2xx_cryp_des.c 0x00000000   Number         0  stm32f2xx_cryp_des.o ABSOLUTE
    ..\BSP\STM32F2xx\src\stm32f2xx_cryp_tdes.c 0x00000000   Number         0  stm32f2xx_cryp_tdes.o ABSOLUTE
    ..\BSP\STM32F2xx\src\stm32f2xx_dac.c     0x00000000   Number         0  stm32f2xx_dac.o ABSOLUTE
    ..\BSP\STM32F2xx\src\stm32f2xx_dbgmcu.c  0x00000000   Number         0  stm32f2xx_dbgmcu.o ABSOLUTE
    ..\BSP\STM32F2xx\src\stm32f2xx_dcmi.c    0x00000000   Number         0  stm32f2xx_dcmi.o ABSOLUTE
    ..\BSP\STM32F2xx\src\stm32f2xx_dma.c     0x00000000   Number         0  stm32f2xx_dma.o ABSOLUTE
    ..\BSP\STM32F2xx\src\stm32f2xx_exti.c    0x00000000   Number         0  stm32f2xx_exti.o ABSOLUTE
    ..\BSP\STM32F2xx\src\stm32f2xx_flash.c   0x00000000   Number         0  stm32f2xx_flash.o ABSOLUTE
    ..\BSP\STM32F2xx\src\stm32f2xx_fsmc.c    0x00000000   Number         0  stm32f2xx_fsmc.o ABSOLUTE
    ..\BSP\STM32F2xx\src\stm32f2xx_gpio.c    0x00000000   Number         0  stm32f2xx_gpio.o ABSOLUTE
    ..\BSP\STM32F2xx\src\stm32f2xx_hash.c    0x00000000   Number         0  stm32f2xx_hash.o ABSOLUTE
    ..\BSP\STM32F2xx\src\stm32f2xx_hash_md5.c 0x00000000   Number         0  stm32f2xx_hash_md5.o ABSOLUTE
    ..\BSP\STM32F2xx\src\stm32f2xx_hash_sha1.c 0x00000000   Number         0  stm32f2xx_hash_sha1.o ABSOLUTE
    ..\BSP\STM32F2xx\src\stm32f2xx_i2c.c     0x00000000   Number         0  stm32f2xx_i2c.o ABSOLUTE
    ..\BSP\STM32F2xx\src\stm32f2xx_iwdg.c    0x00000000   Number         0  stm32f2xx_iwdg.o ABSOLUTE
    ..\BSP\STM32F2xx\src\stm32f2xx_pwr.c     0x00000000   Number         0  stm32f2xx_pwr.o ABSOLUTE
    ..\BSP\STM32F2xx\src\stm32f2xx_rcc.c     0x00000000   Number         0  stm32f2xx_rcc.o ABSOLUTE
    ..\BSP\STM32F2xx\src\stm32f2xx_rng.c     0x00000000   Number         0  stm32f2xx_rng.o ABSOLUTE
    ..\BSP\STM32F2xx\src\stm32f2xx_rtc.c     0x00000000   Number         0  stm32f2xx_rtc.o ABSOLUTE
    ..\BSP\STM32F2xx\src\stm32f2xx_sdio.c    0x00000000   Number         0  stm32f2xx_sdio.o ABSOLUTE
    ..\BSP\STM32F2xx\src\stm32f2xx_spi.c     0x00000000   Number         0  stm32f2xx_spi.o ABSOLUTE
    ..\BSP\STM32F2xx\src\stm32f2xx_syscfg.c  0x00000000   Number         0  stm32f2xx_syscfg.o ABSOLUTE
    ..\BSP\STM32F2xx\src\stm32f2xx_tim.c     0x00000000   Number         0  stm32f2xx_tim.o ABSOLUTE
    ..\BSP\STM32F2xx\src\stm32f2xx_usart.c   0x00000000   Number         0  stm32f2xx_usart.o ABSOLUTE
    ..\BSP\STM32F2xx\src\stm32f2xx_wwdg.c    0x00000000   Number         0  stm32f2xx_wwdg.o ABSOLUTE
    ..\BSP\UCOS-II\bsp_os.c                  0x00000000   Number         0  bsp_os.o ABSOLUTE
    ..\BSP\bsp.c                             0x00000000   Number         0  bsp.o ABSOLUTE
    ..\BSP\bsp_ADC.c                         0x00000000   Number         0  bsp_adc.o ABSOLUTE
    ..\BSP\bsp_DAC.c                         0x00000000   Number         0  bsp_dac.o ABSOLUTE
    ..\BSP\bsp_can.c                         0x00000000   Number         0  bsp_can.o ABSOLUTE
    ..\BSP\bsp_fsmc_sram.c                   0x00000000   Number         0  bsp_fsmc_sram.o ABSOLUTE
    ..\BSP\bsp_gpio.c                        0x00000000   Number         0  bsp_gpio.o ABSOLUTE
    ..\BSP\bsp_i2c.c                         0x00000000   Number         0  bsp_i2c.o ABSOLUTE
    ..\BSP\bsp_int.c                         0x00000000   Number         0  bsp_int.o ABSOLUTE
    ..\BSP\bsp_led.c                         0x00000000   Number         0  bsp_led.o ABSOLUTE
    ..\BSP\bsp_rtc.c                         0x00000000   Number         0  bsp_rtc.o ABSOLUTE
    ..\BSP\bsp_sd.c                          0x00000000   Number         0  bsp_sd.o ABSOLUTE
    ..\BSP\bsp_sdio.c                        0x00000000   Number         0  bsp_sdio.o ABSOLUTE
    ..\BSP\bsp_ser.c                         0x00000000   Number         0  bsp_ser.o ABSOLUTE
    ..\BSP\bsp_spi_flash.c                   0x00000000   Number         0  bsp_spi_flash.o ABSOLUTE
    ..\BSP\bsp_tm3.c                         0x00000000   Number         0  bsp_tm3.o ABSOLUTE
    ..\BSP\bsp_tm6.c                         0x00000000   Number         0  bsp_tm6.o ABSOLUTE
    ..\BSP\bsp_usart.c                       0x00000000   Number         0  bsp_usart.o ABSOLUTE
    ..\\App\\F205_Flash.c                    0x00000000   Number         0  f205_flash.o ABSOLUTE
    ..\\App\\MiscFnx.c                       0x00000000   Number         0  miscfnx.o ABSOLUTE
    ..\\App\\SineTable.c                     0x00000000   Number         0  sinetable.o ABSOLUTE
    ..\\App\\Usart_Common.c                  0x00000000   Number         0  usart_common.o ABSOLUTE
    ..\\App\\app.c                           0x00000000   Number         0  app.o ABSOLUTE
    ..\\App\\app_HPI.c                       0x00000000   Number         0  app_hpi.o ABSOLUTE
    ..\\App\\app_adc.c                       0x00000000   Number         0  app_adc.o ABSOLUTE
    ..\\App\\app_hooks.c                     0x00000000   Number         0  app_hooks.o ABSOLUTE
    ..\\App\\app_i2c1.c                      0x00000000   Number         0  app_i2c1.o ABSOLUTE
    ..\\App\\app_led.c                       0x00000000   Number         0  app_led.o ABSOLUTE
    ..\\App\\app_usart1.c                    0x00000000   Number         0  app_usart1.o ABSOLUTE
    ..\\App\\app_usart6.c                    0x00000000   Number         0  app_usart6.o ABSOLUTE
    ..\\BSP\\CMSIS\\Device_Support\\system_stm32f2xx.c 0x00000000   Number         0  system_stm32f2xx.o ABSOLUTE
    ..\\BSP\\STM32F2xx\\src\\misc.c          0x00000000   Number         0  misc.o ABSOLUTE
    ..\\BSP\\STM32F2xx\\src\\stm32f2xx_adc.c 0x00000000   Number         0  stm32f2xx_adc.o ABSOLUTE
    ..\\BSP\\STM32F2xx\\src\\stm32f2xx_can.c 0x00000000   Number         0  stm32f2xx_can.o ABSOLUTE
    ..\\BSP\\STM32F2xx\\src\\stm32f2xx_crc.c 0x00000000   Number         0  stm32f2xx_crc.o ABSOLUTE
    ..\\BSP\\STM32F2xx\\src\\stm32f2xx_cryp.c 0x00000000   Number         0  stm32f2xx_cryp.o ABSOLUTE
    ..\\BSP\\STM32F2xx\\src\\stm32f2xx_cryp_aes.c 0x00000000   Number         0  stm32f2xx_cryp_aes.o ABSOLUTE
    ..\\BSP\\STM32F2xx\\src\\stm32f2xx_cryp_des.c 0x00000000   Number         0  stm32f2xx_cryp_des.o ABSOLUTE
    ..\\BSP\\STM32F2xx\\src\\stm32f2xx_cryp_tdes.c 0x00000000   Number         0  stm32f2xx_cryp_tdes.o ABSOLUTE
    ..\\BSP\\STM32F2xx\\src\\stm32f2xx_dac.c 0x00000000   Number         0  stm32f2xx_dac.o ABSOLUTE
    ..\\BSP\\STM32F2xx\\src\\stm32f2xx_dbgmcu.c 0x00000000   Number         0  stm32f2xx_dbgmcu.o ABSOLUTE
    ..\\BSP\\STM32F2xx\\src\\stm32f2xx_dcmi.c 0x00000000   Number         0  stm32f2xx_dcmi.o ABSOLUTE
    ..\\BSP\\STM32F2xx\\src\\stm32f2xx_dma.c 0x00000000   Number         0  stm32f2xx_dma.o ABSOLUTE
    ..\\BSP\\STM32F2xx\\src\\stm32f2xx_exti.c 0x00000000   Number         0  stm32f2xx_exti.o ABSOLUTE
    ..\\BSP\\STM32F2xx\\src\\stm32f2xx_flash.c 0x00000000   Number         0  stm32f2xx_flash.o ABSOLUTE
    ..\\BSP\\STM32F2xx\\src\\stm32f2xx_fsmc.c 0x00000000   Number         0  stm32f2xx_fsmc.o ABSOLUTE
    ..\\BSP\\STM32F2xx\\src\\stm32f2xx_gpio.c 0x00000000   Number         0  stm32f2xx_gpio.o ABSOLUTE
    ..\\BSP\\STM32F2xx\\src\\stm32f2xx_hash.c 0x00000000   Number         0  stm32f2xx_hash.o ABSOLUTE
    ..\\BSP\\STM32F2xx\\src\\stm32f2xx_hash_md5.c 0x00000000   Number         0  stm32f2xx_hash_md5.o ABSOLUTE
    ..\\BSP\\STM32F2xx\\src\\stm32f2xx_hash_sha1.c 0x00000000   Number         0  stm32f2xx_hash_sha1.o ABSOLUTE
    ..\\BSP\\STM32F2xx\\src\\stm32f2xx_i2c.c 0x00000000   Number         0  stm32f2xx_i2c.o ABSOLUTE
    ..\\BSP\\STM32F2xx\\src\\stm32f2xx_iwdg.c 0x00000000   Number         0  stm32f2xx_iwdg.o ABSOLUTE
    ..\\BSP\\STM32F2xx\\src\\stm32f2xx_pwr.c 0x00000000   Number         0  stm32f2xx_pwr.o ABSOLUTE
    ..\\BSP\\STM32F2xx\\src\\stm32f2xx_rcc.c 0x00000000   Number         0  stm32f2xx_rcc.o ABSOLUTE
    ..\\BSP\\STM32F2xx\\src\\stm32f2xx_rng.c 0x00000000   Number         0  stm32f2xx_rng.o ABSOLUTE
    ..\\BSP\\STM32F2xx\\src\\stm32f2xx_rtc.c 0x00000000   Number         0  stm32f2xx_rtc.o ABSOLUTE
    ..\\BSP\\STM32F2xx\\src\\stm32f2xx_sdio.c 0x00000000   Number         0  stm32f2xx_sdio.o ABSOLUTE
    ..\\BSP\\STM32F2xx\\src\\stm32f2xx_spi.c 0x00000000   Number         0  stm32f2xx_spi.o ABSOLUTE
    ..\\BSP\\STM32F2xx\\src\\stm32f2xx_syscfg.c 0x00000000   Number         0  stm32f2xx_syscfg.o ABSOLUTE
    ..\\BSP\\STM32F2xx\\src\\stm32f2xx_tim.c 0x00000000   Number         0  stm32f2xx_tim.o ABSOLUTE
    ..\\BSP\\STM32F2xx\\src\\stm32f2xx_usart.c 0x00000000   Number         0  stm32f2xx_usart.o ABSOLUTE
    ..\\BSP\\STM32F2xx\\src\\stm32f2xx_wwdg.c 0x00000000   Number         0  stm32f2xx_wwdg.o ABSOLUTE
    ..\\BSP\\UCOS-II\\bsp_os.c               0x00000000   Number         0  bsp_os.o ABSOLUTE
    ..\\BSP\\bsp.c                           0x00000000   Number         0  bsp.o ABSOLUTE
    ..\\BSP\\bsp_ADC.c                       0x00000000   Number         0  bsp_adc.o ABSOLUTE
    ..\\BSP\\bsp_DAC.c                       0x00000000   Number         0  bsp_dac.o ABSOLUTE
    ..\\BSP\\bsp_can.c                       0x00000000   Number         0  bsp_can.o ABSOLUTE
    ..\\BSP\\bsp_fsmc_sram.c                 0x00000000   Number         0  bsp_fsmc_sram.o ABSOLUTE
    ..\\BSP\\bsp_gpio.c                      0x00000000   Number         0  bsp_gpio.o ABSOLUTE
    ..\\BSP\\bsp_i2c.c                       0x00000000   Number         0  bsp_i2c.o ABSOLUTE
    ..\\BSP\\bsp_int.c                       0x00000000   Number         0  bsp_int.o ABSOLUTE
    ..\\BSP\\bsp_led.c                       0x00000000   Number         0  bsp_led.o ABSOLUTE
    ..\\BSP\\bsp_rtc.c                       0x00000000   Number         0  bsp_rtc.o ABSOLUTE
    ..\\BSP\\bsp_sd.c                        0x00000000   Number         0  bsp_sd.o ABSOLUTE
    ..\\BSP\\bsp_sdio.c                      0x00000000   Number         0  bsp_sdio.o ABSOLUTE
    ..\\BSP\\bsp_ser.c                       0x00000000   Number         0  bsp_ser.o ABSOLUTE
    ..\\BSP\\bsp_spi_flash.c                 0x00000000   Number         0  bsp_spi_flash.o ABSOLUTE
    ..\\BSP\\bsp_tm3.c                       0x00000000   Number         0  bsp_tm3.o ABSOLUTE
    ..\\BSP\\bsp_tm6.c                       0x00000000   Number         0  bsp_tm6.o ABSOLUTE
    ..\\BSP\\bsp_usart.c                     0x00000000   Number         0  bsp_usart.o ABSOLUTE
    dc.s                                     0x00000000   Number         0  dc.o ABSOLUTE
    RESET                                    0x08010000   Section      388  cstartup.o(RESET)
    !!!main                                  0x08010184   Section        8  __main.o(!!!main)
    !!!scatter                               0x0801018c   Section       52  __scatter.o(!!!scatter)
    !!dczerorl2                              0x080101c0   Section       90  __dczerorl2.o(!!dczerorl2)
    !!handler_zi                             0x0801021c   Section       28  __scatter_zi.o(!!handler_zi)
    .ARM.Collect$$_printf_percent$$00000000  0x08010238   Section        0  _printf_percent.o(.ARM.Collect$$_printf_percent$$00000000)
    .ARM.Collect$$_printf_percent$$00000001  0x08010238   Section        6  _printf_n.o(.ARM.Collect$$_printf_percent$$00000001)
    .ARM.Collect$$_printf_percent$$00000002  0x0801023e   Section        6  _printf_p.o(.ARM.Collect$$_printf_percent$$00000002)
    .ARM.Collect$$_printf_percent$$00000003  0x08010244   Section        6  _printf_f.o(.ARM.Collect$$_printf_percent$$00000003)
    .ARM.Collect$$_printf_percent$$00000004  0x0801024a   Section        6  _printf_e.o(.ARM.Collect$$_printf_percent$$00000004)
    .ARM.Collect$$_printf_percent$$00000005  0x08010250   Section        6  _printf_g.o(.ARM.Collect$$_printf_percent$$00000005)
    .ARM.Collect$$_printf_percent$$00000006  0x08010256   Section        6  _printf_a.o(.ARM.Collect$$_printf_percent$$00000006)
    .ARM.Collect$$_printf_percent$$00000007  0x0801025c   Section       10  _printf_ll.o(.ARM.Collect$$_printf_percent$$00000007)
    .ARM.Collect$$_printf_percent$$00000008  0x08010266   Section        6  _printf_i.o(.ARM.Collect$$_printf_percent$$00000008)
    .ARM.Collect$$_printf_percent$$00000009  0x0801026c   Section        6  _printf_d.o(.ARM.Collect$$_printf_percent$$00000009)
    .ARM.Collect$$_printf_percent$$0000000A  0x08010272   Section        6  _printf_u.o(.ARM.Collect$$_printf_percent$$0000000A)
    .ARM.Collect$$_printf_percent$$0000000B  0x08010278   Section        6  _printf_o.o(.ARM.Collect$$_printf_percent$$0000000B)
    .ARM.Collect$$_printf_percent$$0000000C  0x0801027e   Section        6  _printf_x.o(.ARM.Collect$$_printf_percent$$0000000C)
    .ARM.Collect$$_printf_percent$$0000000D  0x08010284   Section        6  _printf_lli.o(.ARM.Collect$$_printf_percent$$0000000D)
    .ARM.Collect$$_printf_percent$$0000000E  0x0801028a   Section        6  _printf_lld.o(.ARM.Collect$$_printf_percent$$0000000E)
    .ARM.Collect$$_printf_percent$$0000000F  0x08010290   Section        6  _printf_llu.o(.ARM.Collect$$_printf_percent$$0000000F)
    .ARM.Collect$$_printf_percent$$00000010  0x08010296   Section        6  _printf_llo.o(.ARM.Collect$$_printf_percent$$00000010)
    .ARM.Collect$$_printf_percent$$00000011  0x0801029c   Section        6  _printf_llx.o(.ARM.Collect$$_printf_percent$$00000011)
    .ARM.Collect$$_printf_percent$$00000012  0x080102a2   Section       10  _printf_l.o(.ARM.Collect$$_printf_percent$$00000012)
    .ARM.Collect$$_printf_percent$$00000013  0x080102ac   Section        6  _printf_c.o(.ARM.Collect$$_printf_percent$$00000013)
    .ARM.Collect$$_printf_percent$$00000014  0x080102b2   Section        6  _printf_s.o(.ARM.Collect$$_printf_percent$$00000014)
    .ARM.Collect$$_printf_percent$$00000015  0x080102b8   Section        6  _printf_lc.o(.ARM.Collect$$_printf_percent$$00000015)
    .ARM.Collect$$_printf_percent$$00000016  0x080102be   Section        6  _printf_ls.o(.ARM.Collect$$_printf_percent$$00000016)
    .ARM.Collect$$_printf_percent$$00000017  0x080102c4   Section        4  _printf_percent_end.o(.ARM.Collect$$_printf_percent$$00000017)
    .ARM.Collect$$libinit$$00000000          0x080102c8   Section        6  libinit.o(.ARM.Collect$$libinit$$00000000)
    .ARM.Collect$$libinit$$00000006          0x080102ce   Section        0  libinit2.o(.ARM.Collect$$libinit$$00000006)
    .ARM.Collect$$libinit$$00000008          0x080102ce   Section        0  libinit2.o(.ARM.Collect$$libinit$$00000008)
    .ARM.Collect$$libinit$$0000000A          0x080102ce   Section        0  libinit2.o(.ARM.Collect$$libinit$$0000000A)
    .ARM.Collect$$libinit$$0000000B          0x080102ce   Section        6  libinit2.o(.ARM.Collect$$libinit$$0000000B)
    .ARM.Collect$$libinit$$0000000D          0x080102d4   Section        0  libinit2.o(.ARM.Collect$$libinit$$0000000D)
    .ARM.Collect$$libinit$$0000000E          0x080102d4   Section       12  libinit2.o(.ARM.Collect$$libinit$$0000000E)
    .ARM.Collect$$libinit$$0000000F          0x080102e0   Section        0  libinit2.o(.ARM.Collect$$libinit$$0000000F)
    .ARM.Collect$$libinit$$00000011          0x080102e0   Section        0  libinit2.o(.ARM.Collect$$libinit$$00000011)
    .ARM.Collect$$libinit$$00000012          0x080102e0   Section       10  libinit2.o(.ARM.Collect$$libinit$$00000012)
    .ARM.Collect$$libinit$$00000013          0x080102ea   Section        0  libinit2.o(.ARM.Collect$$libinit$$00000013)
    .ARM.Collect$$libinit$$00000015          0x080102ea   Section        0  libinit2.o(.ARM.Collect$$libinit$$00000015)
    .ARM.Collect$$libinit$$00000017          0x080102ea   Section        0  libinit2.o(.ARM.Collect$$libinit$$00000017)
    .ARM.Collect$$libinit$$00000019          0x080102ea   Section        0  libinit2.o(.ARM.Collect$$libinit$$00000019)
    .ARM.Collect$$libinit$$0000001B          0x080102ea   Section        0  libinit2.o(.ARM.Collect$$libinit$$0000001B)
    .ARM.Collect$$libinit$$0000001D          0x080102ea   Section        0  libinit2.o(.ARM.Collect$$libinit$$0000001D)
    .ARM.Collect$$libinit$$0000001F          0x080102ea   Section        0  libinit2.o(.ARM.Collect$$libinit$$0000001F)
    .ARM.Collect$$libinit$$00000021          0x080102ea   Section        0  libinit2.o(.ARM.Collect$$libinit$$00000021)
    .ARM.Collect$$libinit$$00000028          0x080102ea   Section        0  libinit2.o(.ARM.Collect$$libinit$$00000028)
    .ARM.Collect$$libinit$$0000002A          0x080102ea   Section        0  libinit2.o(.ARM.Collect$$libinit$$0000002A)
    .ARM.Collect$$libinit$$0000002C          0x080102ea   Section        0  libinit2.o(.ARM.Collect$$libinit$$0000002C)
    .ARM.Collect$$libinit$$0000002E          0x080102ea   Section        0  libinit2.o(.ARM.Collect$$libinit$$0000002E)
    .ARM.Collect$$libinit$$0000002F          0x080102ea   Section        2  libinit2.o(.ARM.Collect$$libinit$$0000002F)
    .ARM.Collect$$libshutdown$$00000000      0x080102ec   Section        2  libshutdown.o(.ARM.Collect$$libshutdown$$00000000)
    .ARM.Collect$$libshutdown$$00000003      0x080102ee   Section        0  libshutdown2.o(.ARM.Collect$$libshutdown$$00000003)
    .ARM.Collect$$libshutdown$$00000006      0x080102ee   Section        0  libshutdown2.o(.ARM.Collect$$libshutdown$$00000006)
    .ARM.Collect$$libshutdown$$00000009      0x080102ee   Section        0  libshutdown2.o(.ARM.Collect$$libshutdown$$00000009)
    .ARM.Collect$$libshutdown$$0000000B      0x080102ee   Section        0  libshutdown2.o(.ARM.Collect$$libshutdown$$0000000B)
    .ARM.Collect$$libshutdown$$0000000E      0x080102ee   Section        0  libshutdown2.o(.ARM.Collect$$libshutdown$$0000000E)
    .ARM.Collect$$libshutdown$$0000000F      0x080102ee   Section        2  libshutdown2.o(.ARM.Collect$$libshutdown$$0000000F)
    .ARM.Collect$$rtentry$$00000000          0x080102f0   Section        0  rtentry.o(.ARM.Collect$$rtentry$$00000000)
    .ARM.Collect$$rtentry$$00000002          0x080102f0   Section        0  rtentry2.o(.ARM.Collect$$rtentry$$00000002)
    .ARM.Collect$$rtentry$$00000004          0x080102f0   Section        6  rtentry4.o(.ARM.Collect$$rtentry$$00000004)
    .ARM.Collect$$rtentry$$00000009          0x080102f6   Section        0  rtentry2.o(.ARM.Collect$$rtentry$$00000009)
    .ARM.Collect$$rtentry$$0000000A          0x080102f6   Section        4  rtentry2.o(.ARM.Collect$$rtentry$$0000000A)
    .ARM.Collect$$rtentry$$0000000C          0x080102fa   Section        0  rtentry2.o(.ARM.Collect$$rtentry$$0000000C)
    .ARM.Collect$$rtentry$$0000000D          0x080102fa   Section        8  rtentry2.o(.ARM.Collect$$rtentry$$0000000D)
    .ARM.Collect$$rtexit$$00000000           0x08010302   Section        2  rtexit.o(.ARM.Collect$$rtexit$$00000000)
    .ARM.Collect$$rtexit$$00000002           0x08010304   Section        0  rtexit2.o(.ARM.Collect$$rtexit$$00000002)
    .ARM.Collect$$rtexit$$00000003           0x08010304   Section        4  rtexit2.o(.ARM.Collect$$rtexit$$00000003)
    .ARM.Collect$$rtexit$$00000004           0x08010308   Section        6  rtexit2.o(.ARM.Collect$$rtexit$$00000004)
    .text                                    0x0801030e   Section        0  app_hooks.o(.text)
    .text                                    0x08010324   Section        0  app.o(.text)
    AppTaskCreate                            0x0801092f   Thumb Code   176  app.o(.text)
    AppEventCreate                           0x080109df   Thumb Code     2  app.o(.text)
    AppTaskStart                             0x08010b03   Thumb Code   336  app.o(.text)
    .text                                    0x08010d4c   Section        0  miscfnx.o(.text)
    .text                                    0x08010f54   Section        0  usart_common.o(.text)
    .text                                    0x080112c0   Section        0  f205_flash.o(.text)
    .text                                    0x080114b0   Section        0  app_led.o(.text)
    .text                                    0x08011628   Section        0  app_adc.o(.text)
    .text                                    0x080119fc   Section        0  app_i2c1.o(.text)
    .text                                    0x08011a84   Section        0  app_usart1.o(.text)
    .text                                    0x080124a8   Section        0  app_usart6.o(.text)
    .text                                    0x080131a0   Section       56  cstartup.o(.text)
    .text                                    0x080131d8   Section        0  bsp.o(.text)
    .text                                    0x0801337c   Section        0  bsp_int.o(.text)
    BSP_IntHandlerDummy                      0x08013419   Thumb Code     2  bsp_int.o(.text)
    BSP_IntHandler                           0x08013435   Thumb Code    60  bsp_int.o(.text)
    .text                                    0x080137a4   Section        0  bsp_os.o(.text)
    .text                                    0x08013844   Section        0  bsp_ser.o(.text)
    BSP_Ser_ISR_Handler                      0x08013845   Thumb Code    74  bsp_ser.o(.text)
    BSP_Ser_WrByteUnlocked                   0x08013981   Thumb Code    46  bsp_ser.o(.text)
    BSP_Ser_RdByteUnlocked                   0x08013a1f   Thumb Code    42  bsp_ser.o(.text)
    .text                                    0x08013b60   Section        0  bsp_adc.o(.text)
    .text                                    0x08013d48   Section        0  bsp_i2c.o(.text)
    .text                                    0x080146a0   Section        0  bsp_gpio.o(.text)
    .text                                    0x080148a4   Section        0  bsp_led.o(.text)
    .text                                    0x080149f0   Section        0  bsp_tm3.o(.text)
    .text                                    0x08014a94   Section        0  bsp_usart.o(.text)
    .text                                    0x080151f0   Section        0  system_stm32f2xx.o(.text)
    SetSysClock                              0x080151f1   Thumb Code   170  system_stm32f2xx.o(.text)
    .text                                    0x080153cc   Section        0  cpu_core.o(.text)
    CPU_NameInit                             0x080153fb   Thumb Code     8  cpu_core.o(.text)
    CPU_TS_Init                              0x08015403   Thumb Code    16  cpu_core.o(.text)
    .text                                    0x080156f8   Section        0  cpu_c.o(.text)
    .text                                    0x08015ec8   Section       52  cpu_a.o(.text)
    .text                                    0x08015efc   Section        0  lib_ascii.o(.text)
    .text                                    0x0801618a   Section        0  lib_mem.o(.text)
    .text                                    0x080163d0   Section        0  lib_str.o(.text)
    Str_FmtNbr_Int32                         0x080168db   Thumb Code   518  lib_str.o(.text)
    Str_ParseNbr_Int32                       0x08016b55   Thumb Code   480  lib_str.o(.text)
    .text                                    0x08016da8   Section      544  lib_mem_a.o(.text)
    .text                                    0x08016fc8   Section        0  os_core.o(.text)
    OS_SchedNew                              0x080170ff   Thumb Code    26  os_core.o(.text)
    OS_InitTaskStat                          0x080175e7   Thumb Code    52  os_core.o(.text)
    OS_InitTaskIdle                          0x08017641   Thumb Code    52  os_core.o(.text)
    OS_InitEventList                         0x0801768b   Thumb Code    94  os_core.o(.text)
    OS_InitTCBList                           0x080176e9   Thumb Code   116  os_core.o(.text)
    OS_InitRdyList                           0x0801775d   Thumb Code    52  os_core.o(.text)
    OS_InitMisc                              0x08017791   Thumb Code    50  os_core.o(.text)
    .text                                    0x08017e50   Section        0  os_flag.o(.text)
    OS_FlagTaskRdy                           0x0801800b   Thumb Code   102  os_flag.o(.text)
    OS_FlagBlock                             0x08018207   Thumb Code   174  os_flag.o(.text)
    .text                                    0x08018788   Section        0  os_mem.o(.text)
    .text                                    0x080189a0   Section        0  os_q.o(.text)
    .text                                    0x0801901c   Section        0  os_sem.o(.text)
    .text                                    0x08019414   Section        0  os_task.o(.text)
    .text                                    0x08019d38   Section        0  os_time.o(.text)
    .text                                    0x08019f10   Section        0  os_tmr.o(.text)
    OSTmr_Alloc                              0x08019f11   Thumb Code    56  os_tmr.o(.text)
    OSTmr_Free                               0x08019fc1   Thumb Code    66  os_tmr.o(.text)
    OSTmr_Unlink                             0x0801a003   Thumb Code    70  os_tmr.o(.text)
    OSTmr_Link                               0x0801a281   Thumb Code   140  os_tmr.o(.text)
    OSTmr_Task                               0x0801a485   Thumb Code   118  os_tmr.o(.text)
    OSTmr_InitTask                           0x0801a4fb   Thumb Code    50  os_tmr.o(.text)
    .text                                    0x0801a654   Section        0  os_dbg.o(.text)
    .text                                    0x0801a7b0   Section        0  os_cpu_c.o(.text)
    .text                                    0x0801a96c   Section      176  os_cpu_a.o(.text)
    .text                                    0x0801aa1c   Section        0  stm32f2xx_adc.o(.text)
    .text                                    0x0801af20   Section        0  stm32f2xx_dma.o(.text)
    .text                                    0x0801b2f8   Section        0  stm32f2xx_exti.o(.text)
    .text                                    0x0801b440   Section        0  stm32f2xx_flash.o(.text)
    .text                                    0x0801b90c   Section        0  stm32f2xx_gpio.o(.text)
    .text                                    0x0801bbbc   Section        0  stm32f2xx_i2c.o(.text)
    .text                                    0x0801c048   Section        0  stm32f2xx_rcc.o(.text)
    .text                                    0x0801c618   Section        0  stm32f2xx_syscfg.o(.text)
    .text                                    0x0801c6c4   Section        0  stm32f2xx_tim.o(.text)
    TI4_Config                               0x0801cf79   Thumb Code    84  stm32f2xx_tim.o(.text)
    TI3_Config                               0x0801cfe3   Thumb Code    80  stm32f2xx_tim.o(.text)
    TI2_Config                               0x0801d04d   Thumb Code    84  stm32f2xx_tim.o(.text)
    TI1_Config                               0x0801d0b7   Thumb Code    70  stm32f2xx_tim.o(.text)
    .text                                    0x0801d510   Section        0  stm32f2xx_usart.o(.text)
    .text                                    0x0801d9c2   Section       38  llushr.o(.text)
    .text                                    0x0801d9e8   Section        0  c89vsnprintf.o(.text)
    .text                                    0x0801da1c   Section       68  rt_memclr.o(.text)
    .text                                    0x0801da60   Section       78  rt_memclr_w.o(.text)
    .text                                    0x0801daae   Section        0  heapauxi.o(.text)
    .text                                    0x0801dab4   Section        0  _printf_pad.o(.text)
    .text                                    0x0801db06   Section        0  _printf_truncate.o(.text)
    .text                                    0x0801db2a   Section        0  _printf_str.o(.text)
    .text                                    0x0801db7c   Section        0  _printf_dec.o(.text)
    .text                                    0x0801dbf4   Section        0  _printf_charcount.o(.text)
    .text                                    0x0801dc20   Section        0  _printf_char_common.o(.text)
    _printf_input_char                       0x0801dc21   Thumb Code    10  _printf_char_common.o(.text)
    .text                                    0x0801dc50   Section        0  _sputc.o(.text)
    .text                                    0x0801dc5a   Section        0  _snputc.o(.text)
    .text                                    0x0801dc6c   Section        0  _printf_wctomb.o(.text)
    .text                                    0x0801dd28   Section        0  _printf_longlong_dec.o(.text)
    .text                                    0x0801dda0   Section        0  _printf_oct_int_ll.o(.text)
    _printf_longlong_oct_internal            0x0801dda1   Thumb Code     0  _printf_oct_int_ll.o(.text)
    .text                                    0x0801de18   Section        0  _printf_hex_int_ll_ptr.o(.text)
    _printf_hex_common                       0x0801de19   Thumb Code     0  _printf_hex_int_ll_ptr.o(.text)
    .text                                    0x0801deb4   Section        0  __printf_flags_ss_wp.o(.text)
    .text                                    0x0801e040   Section      138  lludiv10.o(.text)
    .text                                    0x0801e0ca   Section        0  _printf_intcommon.o(.text)
    .text                                    0x0801e182   Section        0  _printf_fp_dec.o(.text)
    _fp_digits                               0x0801e185   Thumb Code   426  _printf_fp_dec.o(.text)
    .text                                    0x0801e5a0   Section        0  _printf_char.o(.text)
    .text                                    0x0801e5cc   Section        0  _printf_wchar.o(.text)
    .text                                    0x0801e5f8   Section        0  _wcrtomb.o(.text)
    .text                                    0x0801e638   Section       74  sys_stackheap_outer.o(.text)
    .text                                    0x0801e684   Section       16  rt_ctype_table.o(.text)
    .text                                    0x0801e694   Section        8  rt_locale_intlibspace.o(.text)
    .text                                    0x0801e69c   Section        0  _printf_fp_infnan.o(.text)
    .text                                    0x0801e71c   Section        0  bigflt0.o(.text)
    .text                                    0x0801e800   Section        0  exit.o(.text)
    .text                                    0x0801e80c   Section        8  libspace.o(.text)
    .text                                    0x0801e814   Section      128  strcmpv7m.o(.text)
    .text                                    0x0801e894   Section        8  rt_fp_status_addr_intlibspace.o(.text)
    .text                                    0x0801e89c   Section        0  sys_exit.o(.text)
    .text                                    0x0801e8a8   Section        2  use_no_semi.o(.text)
    .text                                    0x0801e8aa   Section        0  indicate_semi.o(.text)
    CL$$btod_d2e                             0x0801e8aa   Section       62  btod.o(CL$$btod_d2e)
    CL$$btod_d2e_denorm_low                  0x0801e8e8   Section       70  btod.o(CL$$btod_d2e_denorm_low)
    CL$$btod_d2e_norm_op1                    0x0801e92e   Section       96  btod.o(CL$$btod_d2e_norm_op1)
    CL$$btod_div_common                      0x0801e98e   Section      824  btod.o(CL$$btod_div_common)
    CL$$btod_e2e                             0x0801ecc6   Section      198  btod.o(CL$$btod_e2e)
    CL$$btod_ediv                            0x0801ed8c   Section       40  btod.o(CL$$btod_ediv)
    CL$$btod_emul                            0x0801edb4   Section       40  btod.o(CL$$btod_emul)
    CL$$btod_mult_common                     0x0801eddc   Section      580  btod.o(CL$$btod_mult_common)
    i._InitRx                                0x0801f020   Section        0  usart_common.o(i._InitRx)
    i._SetRxData                             0x0801f058   Section        0  usart_common.o(i._SetRxData)
    i.__ARM_fpclassify                       0x0801f16c   Section        0  fpclassify.o(i.__ARM_fpclassify)
    i._is_digit                              0x0801f194   Section        0  __printf_wp.o(i._is_digit)
    locale$$code                             0x0801f1a4   Section       44  lc_numeric_c.o(locale$$code)
    locale$$code                             0x0801f1d0   Section       44  lc_ctype_c.o(locale$$code)
    x$fpl$fcmpinf                            0x0801f1fc   Section       24  fcmpi.o(x$fpl$fcmpinf)
    x$fpl$fdiv                               0x0801f214   Section      388  fdiv.o(x$fpl$fdiv)
    _fdiv1                                   0x0801f215   Thumb Code     0  fdiv.o(x$fpl$fdiv)
    x$fpl$ffixu                              0x0801f398   Section       62  ffixu.o(x$fpl$ffixu)
    x$fpl$fflt                               0x0801f3d8   Section       48  fflt_clz.o(x$fpl$fflt)
    x$fpl$ffltu                              0x0801f408   Section       38  fflt_clz.o(x$fpl$ffltu)
    x$fpl$fleqf                              0x0801f430   Section      104  fleqf.o(x$fpl$fleqf)
    x$fpl$fmul                               0x0801f498   Section      258  fmul.o(x$fpl$fmul)
    x$fpl$fnaninf                            0x0801f59a   Section      140  fnaninf.o(x$fpl$fnaninf)
    x$fpl$fpinit                             0x0801f626   Section       14  fpinit.o(x$fpl$fpinit)
    x$fpl$fretinf                            0x0801f634   Section       10  fretinf.o(x$fpl$fretinf)
    x$fpl$frleqf                             0x0801f63e   Section       98  frleqf.o(x$fpl$frleqf)
    x$fpl$printf1                            0x0801f6a0   Section        4  printf1.o(x$fpl$printf1)
    .constdata                               0x0801f6a4   Section     1944  miscfnx.o(.constdata)
    x$fpl$usenofp                            0x0801f6a4   Section        0  usenofp.o(x$fpl$usenofp)
    .constdata                               0x0801fe3c   Section       24  usart_common.o(.constdata)
    .constdata                               0x0801fe54   Section       24  bsp.o(.constdata)
    .constdata                               0x0801fe6c   Section        7  bsp_adc.o(.constdata)
    .constdata                               0x0801fe74   Section       20  bsp_led.o(.constdata)
    .constdata                               0x0801fe88   Section      336  bsp_usart.o(.constdata)
    .constdata                               0x0801ffd8   Section      256  cpu_core.o(.constdata)
    CPU_CntLeadZerosTbl                      0x0801ffd8   Data         256  cpu_core.o(.constdata)
    .constdata                               0x080200d8   Section      148  lib_str.o(.constdata)
    Str_MultOvfThTbl_Int32U                  0x080200d8   Data         148  lib_str.o(.constdata)
    .constdata                               0x0802016c   Section      256  os_core.o(.constdata)
    .constdata                               0x0802026c   Section      114  os_dbg.o(.constdata)
    .constdata                               0x080202e0   Section        8  _printf_wctomb.o(.constdata)
    initial_mbstate                          0x080202e0   Data           8  _printf_wctomb.o(.constdata)
    .constdata                               0x080202e8   Section       40  _printf_hex_int_ll_ptr.o(.constdata)
    uc_hextab                                0x080202e8   Data          20  _printf_hex_int_ll_ptr.o(.constdata)
    lc_hextab                                0x080202fc   Data          20  _printf_hex_int_ll_ptr.o(.constdata)
    .constdata                               0x08020310   Section       17  __printf_flags_ss_wp.o(.constdata)
    maptable                                 0x08020310   Data          17  __printf_flags_ss_wp.o(.constdata)
    .constdata                               0x08020324   Section      148  bigflt0.o(.constdata)
    tenpwrs_x                                0x08020324   Data          60  bigflt0.o(.constdata)
    tenpwrs_i                                0x08020360   Data          64  bigflt0.o(.constdata)
    locale$$data                             0x080203d8   Section       28  lc_numeric_c.o(locale$$data)
    __lcnum_c_name                           0x080203dc   Data           2  lc_numeric_c.o(locale$$data)
    __lcnum_c_start                          0x080203e4   Data           0  lc_numeric_c.o(locale$$data)
    __lcnum_c_point                          0x080203f0   Data           0  lc_numeric_c.o(locale$$data)
    __lcnum_c_thousands                      0x080203f2   Data           0  lc_numeric_c.o(locale$$data)
    __lcnum_c_grouping                       0x080203f3   Data           0  lc_numeric_c.o(locale$$data)
    locale$$data                             0x080203f4   Section      272  lc_ctype_c.o(locale$$data)
    __lcnum_c_end                            0x080203f4   Data           0  lc_numeric_c.o(locale$$data)
    __lcctype_c_name                         0x080203f8   Data           2  lc_ctype_c.o(locale$$data)
    __lcctype_c_start                        0x08020400   Data           0  lc_ctype_c.o(locale$$data)
    __lcctype_c_end                          0x08020504   Data           0  lc_ctype_c.o(locale$$data)
    .data                                    0x20000000   Section       24  app.o(.data)
    .data                                    0x20000018   Section       36  usart_common.o(.data)
    .data                                    0x2000003c   Section       16  app_adc.o(.data)
    .data                                    0x2000004c   Section       13  bsp_ser.o(.data)
    BSP_SerTxWait                            0x2000004c   Data           4  bsp_ser.o(.data)
    BSP_SerRxWait                            0x20000050   Data           4  bsp_ser.o(.data)
    BSP_SerLock                              0x20000054   Data           4  bsp_ser.o(.data)
    BSP_SerRxData                            0x20000058   Data           1  bsp_ser.o(.data)
    .data                                    0x2000005c   Section       22  bsp_i2c.o(.data)
    .data                                    0x20000074   Section       12  bsp_led.o(.data)
    .data                                    0x20000080   Section      120  bsp_usart.o(.data)
    .data                                    0x200000f8   Section       20  system_stm32f2xx.o(.data)
    .data                                    0x2000010c   Section        4  cpu_core.o(.data)
    .data                                    0x20000110   Section      100  os_core.o(.data)
    .data                                    0x20000174   Section        6  os_cpu_c.o(.data)
    OSTmrCtr                                 0x20000178   Data           2  os_cpu_c.o(.data)
    .data                                    0x2000017a   Section       16  stm32f2xx_rcc.o(.data)
    APBAHBPrescTable                         0x2000017a   Data          16  stm32f2xx_rcc.o(.data)
    .bss                                     0x2000018c   Section    11963  app.o(.bss)
    AppTaskStartStk                          0x20000198   Data        1024  app.o(.bss)
    AppTaskUsartStk_1                        0x20000598   Data        4096  app.o(.bss)
    AppTaskUsartStk_6                        0x20001598   Data        2048  app.o(.bss)
    AppTaskADCStk                            0x20001d98   Data        2048  app.o(.bss)
    AppTaskI2C1Stk                           0x20002598   Data        2048  app.o(.bss)
    .bss                                     0x20003048   Section       12  usart_common.o(.bss)
    .bss                                     0x20003054   Section      190  app_adc.o(.bss)
    .bss                                     0x20003114   Section     4640  app_usart1.o(.bss)
    .bss                                     0x20004334   Section     2858  app_usart6.o(.bss)
    .bss                                     0x20004e60   Section      308  bsp.o(.bss)
    .bss                                     0x20004f94   Section      324  bsp_int.o(.bss)
    BSP_IntVectTbl                           0x20004f94   Data         324  bsp_int.o(.bss)
    .bss                                     0x200050d8   Section       60  bsp_i2c.o(.bss)
    .bss                                     0x20005114   Section       24  bsp_usart.o(.bss)
    .bss                                     0x2000512c   Section       16  cpu_core.o(.bss)
    .bss                                     0x2000513c   Section     6648  os_core.o(.bss)
    .bss                                     0x20006b34   Section      512  os_cpu_c.o(.bss)
    .bss                                     0x20006d34   Section       96  libspace.o(.bss)
    HEAP                                     0x20006d98   Section        0  cstartup.o(HEAP)
    STACK                                    0x20006d98   Section     6144  cstartup.o(STACK)
    Heap_Mem                                 0x20006d98   Data           0  cstartup.o(HEAP)
    Stack_Mem                                0x20006d98   Data        6144  cstartup.o(STACK)
    __initial_sp                             0x20008598   Data           0  cstartup.o(STACK)

    Global Symbols

    Symbol Name                              Value     Ov Type        Size  Object(Section)

    BuildAttributes$$THM_ISAv4$P$D$K$B$S$PE$A:L22UL41UL21$X:L11$S22US41US21$IEEE1$IW$USESV6$~STKCKD$USESV7$~SHL$OTIME$ROPI$IEEEJ$EBA8$UX$STANDARDLIB$REQ8$PRES8$EABIv2 0x00000000   Number         0  anon$$obj.o ABSOLUTE
    __ARM_use_no_argv                        0x00000000   Number         0  app.o ABSOLUTE
    _printf_flags                            0x00000000   Number         0  printf_stubs.o ABSOLUTE
    _printf_return_value                     0x00000000   Number         0  printf_stubs.o ABSOLUTE
    _printf_sizespec                         0x00000000   Number         0  printf_stubs.o ABSOLUTE
    _printf_widthprec                        0x00000000   Number         0  printf_stubs.o ABSOLUTE
    __ARM_exceptions_init                     - Undefined Weak Reference
    __alloca_initialize                       - Undefined Weak Reference
    __cpp_initialize__aeabi_                  - Undefined Weak Reference
    __cxa_finalize                            - Undefined Weak Reference
    __sigvec_lookup                           - Undefined Weak Reference
    _atexit_init                              - Undefined Weak Reference
    _call_atexit_fns                          - Undefined Weak Reference
    _clock_init                               - Undefined Weak Reference
    _fp_trap_init                             - Undefined Weak Reference
    _fp_trap_shutdown                         - Undefined Weak Reference
    _get_lc_collate                           - Undefined Weak Reference
    _get_lc_monetary                          - Undefined Weak Reference
    _get_lc_time                              - Undefined Weak Reference
    _getenv_init                              - Undefined Weak Reference
    _handle_redirection                       - Undefined Weak Reference
    _init_alloc                               - Undefined Weak Reference
    _init_user_alloc                          - Undefined Weak Reference
    _initio                                   - Undefined Weak Reference
    _printf_fp_hex                            - Undefined Weak Reference
    _printf_mbtowc                            - Undefined Weak Reference
    _printf_wc                                - Undefined Weak Reference
    _rand_init                                - Undefined Weak Reference
    _signal_finish                            - Undefined Weak Reference
    _signal_init                              - Undefined Weak Reference
    _terminate_alloc                          - Undefined Weak Reference
    _terminate_user_alloc                     - Undefined Weak Reference
    _terminateio                              - Undefined Weak Reference
    __Vectors_Size                           0x00000184   Number         0  cstartup.o ABSOLUTE
    __Vectors                                0x08010000   Data           4  cstartup.o(RESET)
    __Vectors_End                            0x08010184   Data           0  cstartup.o(RESET)
    __main                                   0x08010185   Thumb Code     8  __main.o(!!!main)
    __scatterload                            0x0801018d   Thumb Code     0  __scatter.o(!!!scatter)
    __scatterload_rt2                        0x0801018d   Thumb Code    44  __scatter.o(!!!scatter)
    __scatterload_rt2_thumb_only             0x0801018d   Thumb Code     0  __scatter.o(!!!scatter)
    __scatterload_null                       0x0801019b   Thumb Code     0  __scatter.o(!!!scatter)
    __decompress                             0x080101c1   Thumb Code    90  __dczerorl2.o(!!dczerorl2)
    __decompress1                            0x080101c1   Thumb Code     0  __dczerorl2.o(!!dczerorl2)
    __scatterload_zeroinit                   0x0801021d   Thumb Code    28  __scatter_zi.o(!!handler_zi)
    _printf_n                                0x08010239   Thumb Code     0  _printf_n.o(.ARM.Collect$$_printf_percent$$00000001)
    _printf_percent                          0x08010239   Thumb Code     0  _printf_percent.o(.ARM.Collect$$_printf_percent$$00000000)
    _printf_p                                0x0801023f   Thumb Code     0  _printf_p.o(.ARM.Collect$$_printf_percent$$00000002)
    _printf_f                                0x08010245   Thumb Code     0  _printf_f.o(.ARM.Collect$$_printf_percent$$00000003)
    _printf_e                                0x0801024b   Thumb Code     0  _printf_e.o(.ARM.Collect$$_printf_percent$$00000004)
    _printf_g                                0x08010251   Thumb Code     0  _printf_g.o(.ARM.Collect$$_printf_percent$$00000005)
    _printf_a                                0x08010257   Thumb Code     0  _printf_a.o(.ARM.Collect$$_printf_percent$$00000006)
    _printf_ll                               0x0801025d   Thumb Code     0  _printf_ll.o(.ARM.Collect$$_printf_percent$$00000007)
    _printf_i                                0x08010267   Thumb Code     0  _printf_i.o(.ARM.Collect$$_printf_percent$$00000008)
    _printf_d                                0x0801026d   Thumb Code     0  _printf_d.o(.ARM.Collect$$_printf_percent$$00000009)
    _printf_u                                0x08010273   Thumb Code     0  _printf_u.o(.ARM.Collect$$_printf_percent$$0000000A)
    _printf_o                                0x08010279   Thumb Code     0  _printf_o.o(.ARM.Collect$$_printf_percent$$0000000B)
    _printf_x                                0x0801027f   Thumb Code     0  _printf_x.o(.ARM.Collect$$_printf_percent$$0000000C)
    _printf_lli                              0x08010285   Thumb Code     0  _printf_lli.o(.ARM.Collect$$_printf_percent$$0000000D)
    _printf_lld                              0x0801028b   Thumb Code     0  _printf_lld.o(.ARM.Collect$$_printf_percent$$0000000E)
    _printf_llu                              0x08010291   Thumb Code     0  _printf_llu.o(.ARM.Collect$$_printf_percent$$0000000F)
    _printf_llo                              0x08010297   Thumb Code     0  _printf_llo.o(.ARM.Collect$$_printf_percent$$00000010)
    _printf_llx                              0x0801029d   Thumb Code     0  _printf_llx.o(.ARM.Collect$$_printf_percent$$00000011)
    _printf_l                                0x080102a3   Thumb Code     0  _printf_l.o(.ARM.Collect$$_printf_percent$$00000012)
    _printf_c                                0x080102ad   Thumb Code     0  _printf_c.o(.ARM.Collect$$_printf_percent$$00000013)
    _printf_s                                0x080102b3   Thumb Code     0  _printf_s.o(.ARM.Collect$$_printf_percent$$00000014)
    _printf_lc                               0x080102b9   Thumb Code     0  _printf_lc.o(.ARM.Collect$$_printf_percent$$00000015)
    _printf_ls                               0x080102bf   Thumb Code     0  _printf_ls.o(.ARM.Collect$$_printf_percent$$00000016)
    _printf_percent_end                      0x080102c5   Thumb Code     0  _printf_percent_end.o(.ARM.Collect$$_printf_percent$$00000017)
    __rt_lib_init                            0x080102c9   Thumb Code     0  libinit.o(.ARM.Collect$$libinit$$00000000)
    __rt_lib_init_heap_1                     0x080102cf   Thumb Code     0  libinit2.o(.ARM.Collect$$libinit$$00000006)
    __rt_lib_init_lc_common                  0x080102cf   Thumb Code     0  libinit2.o(.ARM.Collect$$libinit$$0000000B)
    __rt_lib_init_rand_1                     0x080102cf   Thumb Code     0  libinit2.o(.ARM.Collect$$libinit$$0000000A)
    __rt_lib_init_user_alloc_1               0x080102cf   Thumb Code     0  libinit2.o(.ARM.Collect$$libinit$$00000008)
    __rt_lib_init_lc_collate_1               0x080102d5   Thumb Code     0  libinit2.o(.ARM.Collect$$libinit$$0000000D)
    __rt_lib_init_lc_ctype_2                 0x080102d5   Thumb Code     0  libinit2.o(.ARM.Collect$$libinit$$0000000E)
    __rt_lib_init_lc_ctype_1                 0x080102e1   Thumb Code     0  libinit2.o(.ARM.Collect$$libinit$$0000000F)
    __rt_lib_init_lc_monetary_1              0x080102e1   Thumb Code     0  libinit2.o(.ARM.Collect$$libinit$$00000011)
    __rt_lib_init_lc_numeric_2               0x080102e1   Thumb Code     0  libinit2.o(.ARM.Collect$$libinit$$00000012)
    __rt_lib_init_alloca_1                   0x080102eb   Thumb Code     0  libinit2.o(.ARM.Collect$$libinit$$0000002A)
    __rt_lib_init_argv_1                     0x080102eb   Thumb Code     0  libinit2.o(.ARM.Collect$$libinit$$00000028)
    __rt_lib_init_atexit_1                   0x080102eb   Thumb Code     0  libinit2.o(.ARM.Collect$$libinit$$00000017)
    __rt_lib_init_clock_1                    0x080102eb   Thumb Code     0  libinit2.o(.ARM.Collect$$libinit$$0000001D)
    __rt_lib_init_cpp_1                      0x080102eb   Thumb Code     0  libinit2.o(.ARM.Collect$$libinit$$0000002E)
    __rt_lib_init_exceptions_1               0x080102eb   Thumb Code     0  libinit2.o(.ARM.Collect$$libinit$$0000002C)
    __rt_lib_init_fp_trap_1                  0x080102eb   Thumb Code     0  libinit2.o(.ARM.Collect$$libinit$$0000001B)
    __rt_lib_init_getenv_1                   0x080102eb   Thumb Code     0  libinit2.o(.ARM.Collect$$libinit$$0000001F)
    __rt_lib_init_lc_numeric_1               0x080102eb   Thumb Code     0  libinit2.o(.ARM.Collect$$libinit$$00000013)
    __rt_lib_init_lc_time_1                  0x080102eb   Thumb Code     0  libinit2.o(.ARM.Collect$$libinit$$00000015)
    __rt_lib_init_return                     0x080102eb   Thumb Code     0  libinit2.o(.ARM.Collect$$libinit$$0000002F)
    __rt_lib_init_signal_1                   0x080102eb   Thumb Code     0  libinit2.o(.ARM.Collect$$libinit$$00000019)
    __rt_lib_init_stdio_1                    0x080102eb   Thumb Code     0  libinit2.o(.ARM.Collect$$libinit$$00000021)
    __rt_lib_shutdown                        0x080102ed   Thumb Code     0  libshutdown.o(.ARM.Collect$$libshutdown$$00000000)
    __rt_lib_shutdown_fp_trap_1              0x080102ef   Thumb Code     0  libshutdown2.o(.ARM.Collect$$libshutdown$$00000006)
    __rt_lib_shutdown_heap_1                 0x080102ef   Thumb Code     0  libshutdown2.o(.ARM.Collect$$libshutdown$$0000000E)
    __rt_lib_shutdown_return                 0x080102ef   Thumb Code     0  libshutdown2.o(.ARM.Collect$$libshutdown$$0000000F)
    __rt_lib_shutdown_signal_1               0x080102ef   Thumb Code     0  libshutdown2.o(.ARM.Collect$$libshutdown$$00000009)
    __rt_lib_shutdown_stdio_1                0x080102ef   Thumb Code     0  libshutdown2.o(.ARM.Collect$$libshutdown$$00000003)
    __rt_lib_shutdown_user_alloc_1           0x080102ef   Thumb Code     0  libshutdown2.o(.ARM.Collect$$libshutdown$$0000000B)
    __rt_entry                               0x080102f1   Thumb Code     0  rtentry.o(.ARM.Collect$$rtentry$$00000000)
    __rt_entry_presh_1                       0x080102f1   Thumb Code     0  rtentry2.o(.ARM.Collect$$rtentry$$00000002)
    __rt_entry_sh                            0x080102f1   Thumb Code     0  rtentry4.o(.ARM.Collect$$rtentry$$00000004)
    __rt_entry_li                            0x080102f7   Thumb Code     0  rtentry2.o(.ARM.Collect$$rtentry$$0000000A)
    __rt_entry_postsh_1                      0x080102f7   Thumb Code     0  rtentry2.o(.ARM.Collect$$rtentry$$00000009)
    __rt_entry_main                          0x080102fb   Thumb Code     0  rtentry2.o(.ARM.Collect$$rtentry$$0000000D)
    __rt_entry_postli_1                      0x080102fb   Thumb Code     0  rtentry2.o(.ARM.Collect$$rtentry$$0000000C)
    __rt_exit                                0x08010303   Thumb Code     0  rtexit.o(.ARM.Collect$$rtexit$$00000000)
    __rt_exit_ls                             0x08010305   Thumb Code     0  rtexit2.o(.ARM.Collect$$rtexit$$00000003)
    __rt_exit_prels_1                        0x08010305   Thumb Code     0  rtexit2.o(.ARM.Collect$$rtexit$$00000002)
    __rt_exit_exit                           0x08010309   Thumb Code     0  rtexit2.o(.ARM.Collect$$rtexit$$00000004)
    App_TaskCreateHook                       0x0801030f   Thumb Code     2  app_hooks.o(.text)
    App_TaskDelHook                          0x08010311   Thumb Code     2  app_hooks.o(.text)
    App_TaskIdleHook                         0x08010313   Thumb Code     2  app_hooks.o(.text)
    App_TaskStatHook                         0x08010315   Thumb Code     2  app_hooks.o(.text)
    App_TaskReturnHook                       0x08010317   Thumb Code     2  app_hooks.o(.text)
    App_TaskSwHook                           0x08010319   Thumb Code     2  app_hooks.o(.text)
    App_TCBInitHook                          0x0801031b   Thumb Code     2  app_hooks.o(.text)
    App_TimeTickHook                         0x0801031d   Thumb Code     8  app_hooks.o(.text)
    SavePowOffData                           0x08010325   Thumb Code   250  app.o(.text)
    PowOffHandler                            0x0801041f   Thumb Code   160  app.o(.text)
    App_TimeTickFunc                         0x080104bf   Thumb Code   374  app.o(.text)
    App_WaitForReset                         0x08010635   Thumb Code    10  app.o(.text)
    TaskMonitor                              0x0801063f   Thumb Code    82  app.o(.text)
    CheckRecInfo                             0x08010691   Thumb Code   406  app.o(.text)
    GetParams                                0x08010827   Thumb Code   264  app.o(.text)
    SetChParams                              0x080109e1   Thumb Code   268  app.o(.text)
    SetAppParams                             0x08010aed   Thumb Code    22  app.o(.text)
    SetBSPInfo                               0x08010c53   Thumb Code    60  app.o(.text)
    App_InitInfo                             0x08010c8f   Thumb Code    22  app.o(.text)
    main                                     0x08010ca5   Thumb Code   102  app.o(.text)
    Calc_CRCByte                             0x08010d4d   Thumb Code    42  miscfnx.o(.text)
    Calc_CRCByte_Continue                    0x08010d77   Thumb Code    40  miscfnx.o(.text)
    Calc_CRCWord                             0x08010d9f   Thumb Code   128  miscfnx.o(.text)
    GetTimeToMinutes                         0x08010e1f   Thumb Code   170  miscfnx.o(.text)
    GetTimeToSeconds                         0x08010ec9   Thumb Code    96  miscfnx.o(.text)
    Usart_InitInfo                           0x08010f55   Thumb Code    36  usart_common.o(.text)
    _ErrHandler                              0x08010f79   Thumb Code     2  usart_common.o(.text)
    _CheckRxFrame                            0x08010f7b   Thumb Code   100  usart_common.o(.text)
    Usart_RxDataHandler                      0x08010fdf   Thumb Code   352  usart_common.o(.text)
    _PrepareTxData                           0x0801113f   Thumb Code   244  usart_common.o(.text)
    Usart_TxDataHandler                      0x08011233   Thumb Code   108  usart_common.o(.text)
    NULL_RxHandler                           0x0801129f   Thumb Code     2  usart_common.o(.text)
    F205_EraseSectors                        0x080112c1   Thumb Code    80  f205_flash.o(.text)
    F205_ProgramFlash                        0x08011311   Thumb Code    36  f205_flash.o(.text)
    F205_WriteProtection                     0x08011335   Thumb Code   166  f205_flash.o(.text)
    F205_WriteParams                         0x080113db   Thumb Code   178  f205_flash.o(.text)
    F205_ReadParams                          0x0801148d   Thumb Code    36  f205_flash.o(.text)
    LedHandler                               0x080114b1   Thumb Code   372  app_led.o(.text)
    GetDigitalRes                            0x08011629   Thumb Code   322  app_adc.o(.text)
    AdcDataHandler                           0x0801176b   Thumb Code    42  app_adc.o(.text)
    BSP_Check_RestADC1                       0x08011795   Thumb Code    32  app_adc.o(.text)
    AppTaskADC                               0x080117b5   Thumb Code    44  app_adc.o(.text)
    SaveAdcData                              0x080117e1   Thumb Code   170  app_adc.o(.text)
    Adc_Tm3CallBack                          0x0801188b   Thumb Code    42  app_adc.o(.text)
    GetSampleOffset                          0x080118b5   Thumb Code    84  app_adc.o(.text)
    GetSampleValues                          0x08011909   Thumb Code   154  app_adc.o(.text)
    AppTaskI2C1                              0x080119fd   Thumb Code    10  app_i2c1.o(.text)
    Test_I2C1                                0x08011a07   Thumb Code   126  app_i2c1.o(.text)
    AppTaskUsart1                            0x08011a85   Thumb Code    54  app_usart1.o(.text)
    ReportPowOffData                         0x08011abb   Thumb Code   422  app_usart1.o(.text)
    ReadBoardWorkInfo                        0x08011c61   Thumb Code   310  app_usart1.o(.text)
    Usart1_RxFrameHandler                    0x08011d97   Thumb Code  1796  app_usart1.o(.text)
    AppTaskUsart6                            0x080124a9   Thumb Code    56  app_usart6.o(.text)
    AckWriteProtection                       0x080124e1   Thumb Code    70  app_usart6.o(.text)
    CheckProtectData                         0x08012527   Thumb Code   154  app_usart6.o(.text)
    Ack110VRes                               0x080125c1   Thumb Code   118  app_usart6.o(.text)
    Ack110VOffset                            0x08012637   Thumb Code   126  app_usart6.o(.text)
    UpdateParams                             0x080126b5   Thumb Code   294  app_usart6.o(.text)
    WriteMaintInfo                           0x080127db   Thumb Code   330  app_usart6.o(.text)
    AckMaintInfo                             0x08012925   Thumb Code   108  app_usart6.o(.text)
    WriteBoardID                             0x08012991   Thumb Code   180  app_usart6.o(.text)
    AckBoardID                               0x08012a45   Thumb Code    92  app_usart6.o(.text)
    AckParams                                0x08012aa1   Thumb Code   166  app_usart6.o(.text)
    WriteChParams                            0x08012b47   Thumb Code   354  app_usart6.o(.text)
    Usart6_RxFrameHandler                    0x08012ca9   Thumb Code  1270  app_usart6.o(.text)
    Reset_Handler                            0x080131a1   Thumb Code     8  cstartup.o(.text)
    App_NMI_ISR                              0x080131a9   Thumb Code     2  cstartup.o(.text)
    App_Fault_ISR                            0x080131ab   Thumb Code     2  cstartup.o(.text)
    App_MemFault_ISR                         0x080131ad   Thumb Code     2  cstartup.o(.text)
    App_BusFault_ISR                         0x080131af   Thumb Code     2  cstartup.o(.text)
    App_UsageFault_ISR                       0x080131b1   Thumb Code     2  cstartup.o(.text)
    App_Spurious_ISR                         0x080131b3   Thumb Code     2  cstartup.o(.text)
    App_Reserved_ISR                         0x080131b5   Thumb Code     2  cstartup.o(.text)
    __user_initial_stackheap                 0x080131b9   Thumb Code     0  cstartup.o(.text)
    BSP_InitInfo                             0x080131d9   Thumb Code    14  bsp.o(.text)
    BSP_InitUsart                            0x080131e7   Thumb Code    84  bsp.o(.text)
    BSP_Init                                 0x0801323b   Thumb Code    92  bsp.o(.text)
    BSP_RNG_Read                             0x08013297   Thumb Code    88  bsp.o(.text)
    BSP_CPU_ClkFreq                          0x080132ef   Thumb Code    14  bsp.o(.text)
    BSP_CPU_TickInit                         0x080132fd   Thumb Code    24  bsp.o(.text)
    Delay                                    0x08013315   Thumb Code    18  bsp.o(.text)
    CPU_TS_TmrInit                           0x08013327   Thumb Code    46  bsp.o(.text)
    CPU_TS_TmrRd                             0x08013355   Thumb Code     6  bsp.o(.text)
    BSP_IntClr                               0x0801337d   Thumb Code     2  bsp_int.o(.text)
    BSP_IntDis                               0x0801337f   Thumb Code    20  bsp_int.o(.text)
    BSP_IntDisAll                            0x08013393   Thumb Code     8  bsp_int.o(.text)
    BSP_IntEn                                0x0801339b   Thumb Code    20  bsp_int.o(.text)
    BSP_IntVectSet                           0x080133af   Thumb Code    50  bsp_int.o(.text)
    BSP_IntPrioSet                           0x080133e1   Thumb Code    56  bsp_int.o(.text)
    BSP_IntInit                              0x0801341b   Thumb Code    26  bsp_int.o(.text)
    BSP_IntHandlerWWDG                       0x08013471   Thumb Code    10  bsp_int.o(.text)
    BSP_IntHandlerPVD                        0x0801347b   Thumb Code    10  bsp_int.o(.text)
    BSP_IntHandlerTAMPER                     0x08013485   Thumb Code    10  bsp_int.o(.text)
    BSP_IntHandlerRTC                        0x0801348f   Thumb Code    10  bsp_int.o(.text)
    BSP_IntHandlerFLASH                      0x08013499   Thumb Code    10  bsp_int.o(.text)
    BSP_IntHandlerRCC                        0x080134a3   Thumb Code    10  bsp_int.o(.text)
    BSP_IntHandlerEXTI0                      0x080134ad   Thumb Code    10  bsp_int.o(.text)
    BSP_IntHandlerEXTI1                      0x080134b7   Thumb Code    10  bsp_int.o(.text)
    BSP_IntHandlerEXTI2                      0x080134c1   Thumb Code    10  bsp_int.o(.text)
    BSP_IntHandlerEXTI3                      0x080134cb   Thumb Code    10  bsp_int.o(.text)
    BSP_IntHandlerEXTI4                      0x080134d5   Thumb Code    10  bsp_int.o(.text)
    BSP_IntHandlerDMA1_STREAM0               0x080134df   Thumb Code    10  bsp_int.o(.text)
    BSP_IntHandlerDMA1_STREAM1               0x080134e9   Thumb Code    10  bsp_int.o(.text)
    BSP_IntHandlerDMA1_STREAM2               0x080134f3   Thumb Code    10  bsp_int.o(.text)
    BSP_IntHandlerDMA1_STREAM3               0x080134fd   Thumb Code    10  bsp_int.o(.text)
    BSP_IntHandlerDMA1_STREAM4               0x08013507   Thumb Code    10  bsp_int.o(.text)
    BSP_IntHandlerDMA1_STREAM5               0x08013511   Thumb Code    10  bsp_int.o(.text)
    BSP_IntHandlerDMA1_STREAM6               0x0801351b   Thumb Code    10  bsp_int.o(.text)
    BSP_IntHandlerADC1_2                     0x08013525   Thumb Code    10  bsp_int.o(.text)
    BSP_IntHandlerCAN1_TX                    0x0801352f   Thumb Code    10  bsp_int.o(.text)
    BSP_IntHandlerCAN1_RX0                   0x08013539   Thumb Code    10  bsp_int.o(.text)
    BSP_IntHandlerCAN1_RX1                   0x08013543   Thumb Code    10  bsp_int.o(.text)
    BSP_IntHandlerCAN1_SCE                   0x0801354d   Thumb Code    10  bsp_int.o(.text)
    BSP_IntHandlerEXTI9_5                    0x08013557   Thumb Code    10  bsp_int.o(.text)
    BSP_IntHandlerTIM1_BRK                   0x08013561   Thumb Code    10  bsp_int.o(.text)
    BSP_IntHandlerTIM1_UP                    0x0801356b   Thumb Code    10  bsp_int.o(.text)
    BSP_IntHandlerTIM1_TRG_COM               0x08013575   Thumb Code    10  bsp_int.o(.text)
    BSP_IntHandlerTIM1_CC                    0x0801357f   Thumb Code    10  bsp_int.o(.text)
    BSP_IntHandlerTIM2                       0x08013589   Thumb Code    10  bsp_int.o(.text)
    BSP_IntHandlerTIM3                       0x08013593   Thumb Code    10  bsp_int.o(.text)
    BSP_IntHandlerTIM4                       0x0801359d   Thumb Code    10  bsp_int.o(.text)
    BSP_IntHandlerI2C1_EV                    0x080135a7   Thumb Code    10  bsp_int.o(.text)
    BSP_IntHandlerI2C1_ER                    0x080135b1   Thumb Code    10  bsp_int.o(.text)
    BSP_IntHandlerI2C2_EV                    0x080135bb   Thumb Code    10  bsp_int.o(.text)
    BSP_IntHandlerI2C2_ER                    0x080135c5   Thumb Code    10  bsp_int.o(.text)
    BSP_IntHandlerSPI1                       0x080135cf   Thumb Code    10  bsp_int.o(.text)
    BSP_IntHandlerSPI2                       0x080135d9   Thumb Code    10  bsp_int.o(.text)
    BSP_IntHandlerUSART1                     0x080135e3   Thumb Code    10  bsp_int.o(.text)
    BSP_IntHandlerUSART2                     0x080135ed   Thumb Code    10  bsp_int.o(.text)
    BSP_IntHandlerUSART3                     0x080135f7   Thumb Code    10  bsp_int.o(.text)
    BSP_IntHandlerEXTI15_10                  0x08013601   Thumb Code    10  bsp_int.o(.text)
    BSP_IntHandlerRTCAlarm                   0x0801360b   Thumb Code    10  bsp_int.o(.text)
    BSP_IntHandlerUSBWakeUp                  0x08013615   Thumb Code    10  bsp_int.o(.text)
    BSP_IntHandlerTIM8_BRK_TIM12             0x0801361f   Thumb Code    10  bsp_int.o(.text)
    BSP_IntHandlerTIM8_UP_TIM13              0x08013629   Thumb Code    10  bsp_int.o(.text)
    BSP_IntHandlerTIM8_TRG_COM_TIM14         0x08013633   Thumb Code    10  bsp_int.o(.text)
    BSP_IntHandlerTIM8_CC                    0x0801363d   Thumb Code    10  bsp_int.o(.text)
    BSP_IntHandlerDMA1_STREAM7               0x08013647   Thumb Code    10  bsp_int.o(.text)
    BSP_IntHandlerFSMC                       0x08013651   Thumb Code    10  bsp_int.o(.text)
    BSP_IntHandlerSDIO                       0x0801365b   Thumb Code    10  bsp_int.o(.text)
    BSP_IntHandlerTIM5                       0x08013665   Thumb Code    10  bsp_int.o(.text)
    BSP_IntHandlerSPI3                       0x0801366f   Thumb Code    10  bsp_int.o(.text)
    BSP_IntHandlerUSART4                     0x08013679   Thumb Code    10  bsp_int.o(.text)
    BSP_IntHandlerUSART5                     0x08013683   Thumb Code    10  bsp_int.o(.text)
    BSP_IntHandlerTIM6                       0x0801368d   Thumb Code    10  bsp_int.o(.text)
    BSP_IntHandlerTIM7                       0x08013697   Thumb Code    10  bsp_int.o(.text)
    BSP_IntHandlerDMA2_STREAM0               0x080136a1   Thumb Code    10  bsp_int.o(.text)
    BSP_IntHandlerDMA2_STREAM1               0x080136ab   Thumb Code    10  bsp_int.o(.text)
    BSP_IntHandlerDMA2_STREAM2               0x080136b5   Thumb Code    10  bsp_int.o(.text)
    BSP_IntHandlerDMA2_STREAM3               0x080136bf   Thumb Code    10  bsp_int.o(.text)
    BSP_IntHandlerDMA2_STREAM4               0x080136c9   Thumb Code    10  bsp_int.o(.text)
    BSP_IntHandlerETH                        0x080136d3   Thumb Code    10  bsp_int.o(.text)
    BSP_IntHandlerETHWakeup                  0x080136dd   Thumb Code    10  bsp_int.o(.text)
    BSP_IntHandlerCAN2_TX                    0x080136e7   Thumb Code    10  bsp_int.o(.text)
    BSP_IntHandlerCAN2_RX0                   0x080136f1   Thumb Code    10  bsp_int.o(.text)
    BSP_IntHandlerCAN2_RX1                   0x080136fb   Thumb Code    10  bsp_int.o(.text)
    BSP_IntHandlerCAN2_SCE                   0x08013705   Thumb Code    10  bsp_int.o(.text)
    BSP_IntHandlerOTG                        0x0801370f   Thumb Code    10  bsp_int.o(.text)
    BSP_IntHandlerDMA2_STREAM5               0x08013719   Thumb Code    10  bsp_int.o(.text)
    BSP_IntHandlerDMA2_STREAM6               0x08013723   Thumb Code    10  bsp_int.o(.text)
    BSP_IntHandlerDMA2_STREAM7               0x0801372d   Thumb Code    10  bsp_int.o(.text)
    BSP_IntHandlerUSART6                     0x08013737   Thumb Code    10  bsp_int.o(.text)
    BSP_IntHandlerI2C3_EV                    0x08013741   Thumb Code    10  bsp_int.o(.text)
    BSP_IntHandlerI2C3_ER                    0x0801374b   Thumb Code    10  bsp_int.o(.text)
    BSP_IntHandlerOTG_HS_EP1_OUT             0x08013755   Thumb Code    10  bsp_int.o(.text)
    BSP_IntHandlerOTG_HS_EP1_IN              0x0801375f   Thumb Code    10  bsp_int.o(.text)
    BSP_IntHandlerOTG_HS_WKUP                0x08013769   Thumb Code    10  bsp_int.o(.text)
    BSP_IntHandlerOTG_HS                     0x08013773   Thumb Code    10  bsp_int.o(.text)
    BSP_IntHandlerDCMI                       0x0801377d   Thumb Code    10  bsp_int.o(.text)
    BSP_IntHandlerCRYP                       0x08013787   Thumb Code    10  bsp_int.o(.text)
    BSP_IntHandlerHASH_RNG                   0x08013791   Thumb Code    10  bsp_int.o(.text)
    BSP_OS_SemCreate                         0x080137a5   Thumb Code    38  bsp_os.o(.text)
    BSP_OS_SemWait                           0x080137cb   Thumb Code    46  bsp_os.o(.text)
    BSP_OS_SemPost                           0x080137f9   Thumb Code    22  bsp_os.o(.text)
    BSP_OS_TimeDlyMs                         0x0801380f   Thumb Code    52  bsp_os.o(.text)
    BSP_Ser_Init                             0x0801388f   Thumb Code   242  bsp_ser.o(.text)
    BSP_Ser_WrStr                            0x080139af   Thumb Code    72  bsp_ser.o(.text)
    BSP_Ser_Printf                           0x080139f7   Thumb Code    40  bsp_ser.o(.text)
    BSP_Ser_RdByte                           0x08013a49   Thumb Code    26  bsp_ser.o(.text)
    BSP_Ser_RdStr                            0x08013a63   Thumb Code   152  bsp_ser.o(.text)
    BSP_Ser_WrByte                           0x08013afb   Thumb Code    28  bsp_ser.o(.text)
    BSP_ADC1_DMA_ISRHandler                  0x08013b61   Thumb Code    56  bsp_adc.o(.text)
    ADC1_Config                              0x08013b99   Thumb Code    82  bsp_adc.o(.text)
    ADC_DMAConfig                            0x08013beb   Thumb Code   106  bsp_adc.o(.text)
    ADC_GPIOConfig                           0x08013c55   Thumb Code    34  bsp_adc.o(.text)
    BSP_ADC_Init                             0x08013c77   Thumb Code   118  bsp_adc.o(.text)
    BSP_ADC_Start                            0x08013ced   Thumb Code    44  bsp_adc.o(.text)
    sEE_I2C_DMA_RX_IRQHandler                0x08013d49   Thumb Code    48  bsp_i2c.o(.text)
    sEE_TIMEOUT_UserCallback                 0x08013d79   Thumb Code     4  bsp_i2c.o(.text)
    sEE_I2C_DMA_TX_IRQHandler                0x08013d7d   Thumb Code    94  bsp_i2c.o(.text)
    sEE_LowLevel_Init                        0x08013ddb   Thumb Code   316  bsp_i2c.o(.text)
    sEE_Init                                 0x08013f17   Thumb Code    86  bsp_i2c.o(.text)
    BSP_InitI2C1                             0x08013f6d   Thumb Code     8  bsp_i2c.o(.text)
    sEE_LowLevel_DMAConfig                   0x08013f75   Thumb Code    58  bsp_i2c.o(.text)
    sEE_ReadBuffer                           0x08013faf   Thumb Code   584  bsp_i2c.o(.text)
    BSP_ReadI2C1                             0x080141f7   Thumb Code    56  bsp_i2c.o(.text)
    sEE_WaitEepromStandbyState               0x0801422f   Thumb Code     4  bsp_i2c.o(.text)
    sEE_WritePage                            0x08014233   Thumb Code   244  bsp_i2c.o(.text)
    sEE_WriteBuffer                          0x08014327   Thumb Code   690  bsp_i2c.o(.text)
    BSP_WriteI2C1                            0x080145d9   Thumb Code    54  bsp_i2c.o(.text)
    sEE_LowLevel_DeInit                      0x0801460f   Thumb Code   112  bsp_i2c.o(.text)
    sEE_DeInit                               0x0801467f   Thumb Code     8  bsp_i2c.o(.text)
    BSP_EnableUsartTx                        0x080146a1   Thumb Code    60  bsp_gpio.o(.text)
    BSP_GPIO_Init                            0x080146dd   Thumb Code   154  bsp_gpio.o(.text)
    BSP_FeedDog                              0x08014777   Thumb Code    14  bsp_gpio.o(.text)
    BSP_DetectSD                             0x08014785   Thumb Code    14  bsp_gpio.o(.text)
    EXTILine6_Config                         0x08014793   Thumb Code    90  bsp_gpio.o(.text)
    EXTILine7_Config                         0x080147ed   Thumb Code    90  bsp_gpio.o(.text)
    BSP_EXTI9_5_ISRHandler                   0x08014847   Thumb Code    66  bsp_gpio.o(.text)
    BSP_LED_Init                             0x080148a5   Thumb Code    80  bsp_led.o(.text)
    BSP_LED_Off                              0x080148f5   Thumb Code    70  bsp_led.o(.text)
    BSP_LED_On                               0x0801493b   Thumb Code    70  bsp_led.o(.text)
    BSP_LED_Toggle                           0x08014981   Thumb Code    98  bsp_led.o(.text)
    BSP_TIM3_ISRHandler                      0x080149f1   Thumb Code    42  bsp_tm3.o(.text)
    BSP_Tm3_Init                             0x08014a1b   Thumb Code   106  bsp_tm3.o(.text)
    USART_DMAConfig                          0x08014a95   Thumb Code   146  bsp_usart.o(.text)
    BSP_USART_Init                           0x08014b27   Thumb Code   438  bsp_usart.o(.text)
    BSP_USART_TxData                         0x08014cdd   Thumb Code    36  bsp_usart.o(.text)
    BSP_GetUsartTxStatus                     0x08014d01   Thumb Code    26  bsp_usart.o(.text)
    Usart1_Isr                               0x08014d1b   Thumb Code   128  bsp_usart.o(.text)
    Usart2_Isr                               0x08014d9b   Thumb Code   138  bsp_usart.o(.text)
    Usart3_Isr                               0x08014e25   Thumb Code   226  bsp_usart.o(.text)
    Usart4_Isr                               0x08014f07   Thumb Code   118  bsp_usart.o(.text)
    Usart5_Isr                               0x08014f7d   Thumb Code   118  bsp_usart.o(.text)
    Usart6_Isr                               0x08014ff3   Thumb Code   118  bsp_usart.o(.text)
    Usart1_Dma_Isr                           0x08015069   Thumb Code    56  bsp_usart.o(.text)
    Usart2_Dma_Isr                           0x080150a1   Thumb Code    56  bsp_usart.o(.text)
    Usart3_Dma_Isr                           0x080150d9   Thumb Code    56  bsp_usart.o(.text)
    Usart4_Dma_Isr                           0x08015111   Thumb Code    56  bsp_usart.o(.text)
    Usart5_Dma_Isr                           0x08015149   Thumb Code    68  bsp_usart.o(.text)
    Usart6_Dma_Isr                           0x0801518d   Thumb Code    68  bsp_usart.o(.text)
    SystemInit                               0x0801529b   Thumb Code    76  system_stm32f2xx.o(.text)
    SystemCoreClockUpdate                    0x080152e7   Thumb Code   172  system_stm32f2xx.o(.text)
    CPU_NameClr                              0x080153cd   Thumb Code    46  cpu_core.o(.text)
    CPU_Init                                 0x08015413   Thumb Code    12  cpu_core.o(.text)
    CPU_SW_Exception                         0x0801541f   Thumb Code     4  cpu_core.o(.text)
    CPU_NameGet                              0x08015423   Thumb Code    78  cpu_core.o(.text)
    CPU_NameSet                              0x08015471   Thumb Code   104  cpu_core.o(.text)
    CPU_TS_Get32                             0x080154d9   Thumb Code    12  cpu_core.o(.text)
    CPU_TS_Update                            0x080154e5   Thumb Code     2  cpu_core.o(.text)
    CPU_TS_TmrFreqGet                        0x080154e7   Thumb Code    30  cpu_core.o(.text)
    CPU_TS_TmrFreqSet                        0x08015505   Thumb Code     6  cpu_core.o(.text)
    CPU_CntLeadZeros08                       0x0801550b   Thumb Code    20  cpu_core.o(.text)
    CPU_CntLeadZeros16                       0x0801551f   Thumb Code    20  cpu_core.o(.text)
    CPU_CntLeadZeros32                       0x08015533   Thumb Code    18  cpu_core.o(.text)
    CPU_CntLeadZeros64                       0x08015545   Thumb Code   290  cpu_core.o(.text)
    CPU_CntTrailZeros08                      0x08015667   Thumb Code    22  cpu_core.o(.text)
    CPU_CntTrailZeros16                      0x0801567d   Thumb Code    22  cpu_core.o(.text)
    CPU_CntTrailZeros32                      0x08015693   Thumb Code    22  cpu_core.o(.text)
    CPU_CntTrailZeros64                      0x080156a9   Thumb Code    66  cpu_core.o(.text)
    CPU_BitBandClr                           0x080156f9   Thumb Code    66  cpu_c.o(.text)
    CPU_BitBandSet                           0x0801573b   Thumb Code    66  cpu_c.o(.text)
    CPU_IntSrcDis                            0x0801577d   Thumb Code   344  cpu_c.o(.text)
    CPU_IntSrcEn                             0x080158d5   Thumb Code   344  cpu_c.o(.text)
    CPU_IntSrcPendClr                        0x08015a2d   Thumb Code   192  cpu_c.o(.text)
    CPU_IntSrcPrioSet                        0x08015aed   Thumb Code   516  cpu_c.o(.text)
    CPU_IntSrcPrioGet                        0x08015cf1   Thumb Code   452  cpu_c.o(.text)
    CPU_IntDis                               0x08015ec9   Thumb Code     0  cpu_a.o(.text)
    CPU_IntEn                                0x08015ecd   Thumb Code     0  cpu_a.o(.text)
    CPU_SR_Save                              0x08015ed1   Thumb Code     0  cpu_a.o(.text)
    CPU_SR_Restore                           0x08015ed9   Thumb Code     0  cpu_a.o(.text)
    CPU_WaitForInt                           0x08015edf   Thumb Code     0  cpu_a.o(.text)
    CPU_WaitForExcept                        0x08015ee3   Thumb Code     0  cpu_a.o(.text)
    CPU_CntLeadZeros                         0x08015ee7   Thumb Code     0  cpu_a.o(.text)
    CPU_CntTrailZeros                        0x08015eed   Thumb Code     0  cpu_a.o(.text)
    CPU_RevBits                              0x08015ef7   Thumb Code     0  cpu_a.o(.text)
    ASCII_IsAlpha                            0x08015efd   Thumb Code    52  lib_ascii.o(.text)
    ASCII_IsAlphaNum                         0x08015f31   Thumb Code    80  lib_ascii.o(.text)
    ASCII_IsLower                            0x08015f81   Thumb Code    24  lib_ascii.o(.text)
    ASCII_IsUpper                            0x08015f99   Thumb Code    24  lib_ascii.o(.text)
    ASCII_IsDig                              0x08015fb1   Thumb Code    24  lib_ascii.o(.text)
    ASCII_IsDigOct                           0x08015fc9   Thumb Code    24  lib_ascii.o(.text)
    ASCII_IsDigHex                           0x08015fe1   Thumb Code    40  lib_ascii.o(.text)
    ASCII_IsBlank                            0x08016009   Thumb Code    24  lib_ascii.o(.text)
    ASCII_IsSpace                            0x08016021   Thumb Code    40  lib_ascii.o(.text)
    ASCII_IsPrint                            0x08016049   Thumb Code    24  lib_ascii.o(.text)
    ASCII_IsGraph                            0x08016061   Thumb Code    24  lib_ascii.o(.text)
    ASCII_IsPunct                            0x08016079   Thumb Code   138  lib_ascii.o(.text)
    ASCII_IsCtrl                             0x08016103   Thumb Code    30  lib_ascii.o(.text)
    ASCII_ToLower                            0x08016121   Thumb Code    32  lib_ascii.o(.text)
    ASCII_ToUpper                            0x08016141   Thumb Code    32  lib_ascii.o(.text)
    ASCII_Cmp                                0x08016161   Thumb Code    42  lib_ascii.o(.text)
    Mem_Init                                 0x0801618b   Thumb Code     2  lib_mem.o(.text)
    Mem_Set                                  0x0801618d   Thumb Code   114  lib_mem.o(.text)
    Mem_Clr                                  0x080161ff   Thumb Code    20  lib_mem.o(.text)
    Mem_Move                                 0x08016213   Thumb Code   224  lib_mem.o(.text)
    Mem_Cmp                                  0x080162f3   Thumb Code   220  lib_mem.o(.text)
    Str_Len_N                                0x080163d1   Thumb Code    34  lib_str.o(.text)
    Str_Len                                  0x080163f3   Thumb Code    20  lib_str.o(.text)
    Str_Copy_N                               0x08016407   Thumb Code    80  lib_str.o(.text)
    Str_Copy                                 0x08016457   Thumb Code    24  lib_str.o(.text)
    Str_Cat_N                                0x0801646f   Thumb Code   102  lib_str.o(.text)
    Str_Cat                                  0x080164d5   Thumb Code    24  lib_str.o(.text)
    Str_Cmp_N                                0x080164ed   Thumb Code   176  lib_str.o(.text)
    Str_Cmp                                  0x0801659d   Thumb Code    24  lib_str.o(.text)
    Str_CmpIgnoreCase_N                      0x080165b5   Thumb Code   282  lib_str.o(.text)
    Str_CmpIgnoreCase                        0x080166cf   Thumb Code    24  lib_str.o(.text)
    Str_Char_N                               0x080166e7   Thumb Code    80  lib_str.o(.text)
    Str_Char                                 0x08016737   Thumb Code    24  lib_str.o(.text)
    Str_Char_Last_N                          0x0801674f   Thumb Code    78  lib_str.o(.text)
    Str_Char_Last                            0x0801679d   Thumb Code    24  lib_str.o(.text)
    Str_Char_Replace_N                       0x080167b5   Thumb Code    56  lib_str.o(.text)
    Str_Char_Replace                         0x080167ed   Thumb Code    28  lib_str.o(.text)
    Str_Str_N                                0x08016809   Thumb Code   186  lib_str.o(.text)
    Str_Str                                  0x080168c3   Thumb Code    24  lib_str.o(.text)
    Str_FmtNbr_Int32U                        0x08016ae1   Thumb Code    48  lib_str.o(.text)
    Str_FmtNbr_Int32S                        0x08016b11   Thumb Code    68  lib_str.o(.text)
    Str_ParseNbr_Int32U                      0x08016d35   Thumb Code    32  lib_str.o(.text)
    Str_ParseNbr_Int32S                      0x08016d55   Thumb Code    78  lib_str.o(.text)
    Mem_Copy                                 0x08016da9   Thumb Code     0  lib_mem_a.o(.text)
    OS_StrLen                                0x08016fc9   Thumb Code    26  os_core.o(.text)
    OSEventNameGet                           0x08016fe3   Thumb Code   110  os_core.o(.text)
    OSEventNameSet                           0x08017051   Thumb Code    92  os_core.o(.text)
    OS_EventTaskRemoveMulti                  0x080170ad   Thumb Code    82  os_core.o(.text)
    OS_Sched                                 0x08017119   Thumb Code    94  os_core.o(.text)
    OS_EventTaskWaitMulti                    0x08017177   Thumb Code   160  os_core.o(.text)
    OSEventPendMulti                         0x08017217   Thumb Code   766  os_core.o(.text)
    OS_TaskStatStkChk                        0x08017515   Thumb Code    58  os_core.o(.text)
    OS_TaskStat                              0x0801754f   Thumb Code   152  os_core.o(.text)
    OS_TaskIdle                              0x0801761b   Thumb Code    38  os_core.o(.text)
    OS_MemClr                                0x08017675   Thumb Code    22  os_core.o(.text)
    OSInit                                   0x080177c3   Thumb Code    56  os_core.o(.text)
    OSIntEnter                               0x080177fb   Thumb Code   178  os_core.o(.text)
    OSIntExit                                0x080178ad   Thumb Code   120  os_core.o(.text)
    OSSchedLock                              0x08017925   Thumb Code    54  os_core.o(.text)
    OSSchedUnlock                            0x0801795b   Thumb Code    86  os_core.o(.text)
    OSStart                                  0x080179b1   Thumb Code    48  os_core.o(.text)
    OSStatInit                               0x080179e1   Thumb Code    70  os_core.o(.text)
    OSTimeTick                               0x08017a27   Thumb Code   238  os_core.o(.text)
    OSVersion                                0x08017b15   Thumb Code     6  os_core.o(.text)
    OS_Dummy                                 0x08017b1b   Thumb Code     2  os_core.o(.text)
    OS_EventTaskRemove                       0x08017b1d   Thumb Code    58  os_core.o(.text)
    OS_EventTaskRdy                          0x08017b57   Thumb Code   144  os_core.o(.text)
    OS_EventTaskWait                         0x08017be7   Thumb Code   132  os_core.o(.text)
    OS_EventWaitListInit                     0x08017c6b   Thumb Code   106  os_core.o(.text)
    OS_MemCopy                               0x08017cd5   Thumb Code    22  os_core.o(.text)
    OS_TCBInit                               0x08017ceb   Thumb Code   334  os_core.o(.text)
    OSFlagAccept                             0x08017e51   Thumb Code   302  os_flag.o(.text)
    OSFlagCreate                             0x08017f7f   Thumb Code   100  os_flag.o(.text)
    OS_FlagUnlink                            0x08017fe3   Thumb Code    40  os_flag.o(.text)
    OSFlagDel                                0x08018071   Thumb Code   240  os_flag.o(.text)
    OSFlagNameGet                            0x08018161   Thumb Code    92  os_flag.o(.text)
    OSFlagNameSet                            0x080181bd   Thumb Code    74  os_flag.o(.text)
    OSFlagPend                               0x080182b5   Thumb Code   698  os_flag.o(.text)
    OSFlagPendGetFlagsRdy                    0x0801856f   Thumb Code    28  os_flag.o(.text)
    OSFlagPost                               0x0801858b   Thumb Code   354  os_flag.o(.text)
    OSFlagQuery                              0x080186ed   Thumb Code    56  os_flag.o(.text)
    OS_FlagInit                              0x08018725   Thumb Code    88  os_flag.o(.text)
    OSMemCreate                              0x08018789   Thumb Code   128  os_mem.o(.text)
    OSMemGet                                 0x08018809   Thumb Code    72  os_mem.o(.text)
    OSMemNameGet                             0x08018851   Thumb Code    68  os_mem.o(.text)
    OSMemNameSet                             0x08018895   Thumb Code    54  os_mem.o(.text)
    OSMemPut                                 0x080188cb   Thumb Code    58  os_mem.o(.text)
    OSMemQuery                               0x08018905   Thumb Code    58  os_mem.o(.text)
    OS_MemInit                               0x0801893f   Thumb Code    82  os_mem.o(.text)
    OSQAccept                                0x080189a1   Thumb Code   102  os_q.o(.text)
    OSQCreate                                0x08018a07   Thumb Code   152  os_q.o(.text)
    OSQDel                                   0x08018a9f   Thumb Code   264  os_q.o(.text)
    OSQFlush                                 0x08018ba7   Thumb Code    40  os_q.o(.text)
    OSQPend                                  0x08018bcf   Thumb Code   310  os_q.o(.text)
    OSQPendAbort                             0x08018d05   Thumb Code   142  os_q.o(.text)
    OSQPost                                  0x08018d93   Thumb Code   146  os_q.o(.text)
    OSQPostFront                             0x08018e25   Thumb Code   122  os_q.o(.text)
    OSQPostOpt                               0x08018e9f   Thumb Code   188  os_q.o(.text)
    OSQQuery                                 0x08018f5b   Thumb Code   104  os_q.o(.text)
    OS_QInit                                 0x08018fc3   Thumb Code    80  os_q.o(.text)
    OSSemAccept                              0x0801901d   Thumb Code    46  os_sem.o(.text)
    OSSemCreate                              0x0801904b   Thumb Code    78  os_sem.o(.text)
    OSSemDel                                 0x08019099   Thumb Code   234  os_sem.o(.text)
    OSSemPend                                0x08019183   Thumb Code   250  os_sem.o(.text)
    OSSemPendAbort                           0x0801927d   Thumb Code   142  os_sem.o(.text)
    OSSemPost                                0x0801930b   Thumb Code    92  os_sem.o(.text)
    OSSemQuery                               0x08019367   Thumb Code    80  os_sem.o(.text)
    OSSemSet                                 0x080193b7   Thumb Code    74  os_sem.o(.text)
    OSTaskChangePrio                         0x08019415   Thumb Code   452  os_task.o(.text)
    OSTaskCreate                             0x080195d9   Thumb Code   156  os_task.o(.text)
    OS_TaskStkClr                            0x08019675   Thumb Code    30  os_task.o(.text)
    OSTaskCreateExt                          0x08019693   Thumb Code   176  os_task.o(.text)
    OSTaskDel                                0x08019743   Thumb Code   366  os_task.o(.text)
    OSTaskDelReq                             0x080198b1   Thumb Code   104  os_task.o(.text)
    OSTaskNameGet                            0x08019919   Thumb Code   128  os_task.o(.text)
    OSTaskNameSet                            0x08019999   Thumb Code   106  os_task.o(.text)
    OSTaskResume                             0x08019a03   Thumb Code   162  os_task.o(.text)
    OSTaskStkChk                             0x08019aa5   Thumb Code   134  os_task.o(.text)
    OSTaskSuspend                            0x08019b2b   Thumb Code   174  os_task.o(.text)
    OSTaskQuery                              0x08019bd9   Thumb Code   128  os_task.o(.text)
    OSTaskRegGet                             0x08019c59   Thumb Code    62  os_task.o(.text)
    OSTaskRegGetID                           0x08019c97   Thumb Code    66  os_task.o(.text)
    OSTaskRegSet                             0x08019cd9   Thumb Code    64  os_task.o(.text)
    OS_TaskReturn                            0x08019d19   Thumb Code    18  os_task.o(.text)
    OSTimeDly                                0x08019d39   Thumb Code   118  os_time.o(.text)
    OSTimeDlyHMSM                            0x08019daf   Thumb Code    90  os_time.o(.text)
    OSTimeDlyResume                          0x08019e09   Thumb Code   184  os_time.o(.text)
    OSTimeGet                                0x08019ec1   Thumb Code    26  os_time.o(.text)
    OSTimeSet                                0x08019edb   Thumb Code    26  os_time.o(.text)
    OSTmrCreate                              0x08019f49   Thumb Code   120  os_tmr.o(.text)
    OSTmrDel                                 0x0801a049   Thumb Code   148  os_tmr.o(.text)
    OSTmrNameGet                             0x0801a0dd   Thumb Code   132  os_tmr.o(.text)
    OSTmrRemainGet                           0x0801a161   Thumb Code   190  os_tmr.o(.text)
    OSTmrStateGet                            0x0801a21f   Thumb Code    98  os_tmr.o(.text)
    OSTmrStart                               0x0801a30d   Thumb Code   152  os_tmr.o(.text)
    OSTmrStop                                0x0801a3a5   Thumb Code   208  os_tmr.o(.text)
    OSTmrSignal                              0x0801a475   Thumb Code    16  os_tmr.o(.text)
    OSTmr_Init                               0x0801a52d   Thumb Code   192  os_tmr.o(.text)
    OSDebugInit                              0x0801a655   Thumb Code   118  os_dbg.o(.text)
    OSInitHookBegin                          0x0801a7b1   Thumb Code    36  os_cpu_c.o(.text)
    OSInitHookEnd                            0x0801a7d5   Thumb Code     2  os_cpu_c.o(.text)
    OSTaskCreateHook                         0x0801a7d7   Thumb Code    12  os_cpu_c.o(.text)
    OSTaskDelHook                            0x0801a7e3   Thumb Code    12  os_cpu_c.o(.text)
    OSTaskIdleHook                           0x0801a7ef   Thumb Code     8  os_cpu_c.o(.text)
    OSTaskReturnHook                         0x0801a7f7   Thumb Code    12  os_cpu_c.o(.text)
    OSTaskStatHook                           0x0801a803   Thumb Code     8  os_cpu_c.o(.text)
    OSTaskStkInit                            0x0801a80b   Thumb Code   184  os_cpu_c.o(.text)
    OSTaskSwHook                             0x0801a8c3   Thumb Code     8  os_cpu_c.o(.text)
    OSTCBInitHook                            0x0801a8cb   Thumb Code    12  os_cpu_c.o(.text)
    OSTimeTickHook                           0x0801a8d7   Thumb Code    38  os_cpu_c.o(.text)
    OS_CPU_SysTickHandler                    0x0801a8fd   Thumb Code    36  os_cpu_c.o(.text)
    OS_CPU_SysTickInit                       0x0801a921   Thumb Code    46  os_cpu_c.o(.text)
    OS_CPU_SR_Save                           0x0801a96d   Thumb Code     0  os_cpu_a.o(.text)
    OS_CPU_SR_Restore                        0x0801a975   Thumb Code     0  os_cpu_a.o(.text)
    OSStartHighRdy                           0x0801a97b   Thumb Code     0  os_cpu_a.o(.text)
    OSCtxSw                                  0x0801a9a3   Thumb Code     0  os_cpu_a.o(.text)
    OSIntCtxSw                               0x0801a9ad   Thumb Code     0  os_cpu_a.o(.text)
    OS_CPU_PendSVHandler                     0x0801a9b7   Thumb Code     0  os_cpu_a.o(.text)
    ADC_DeInit                               0x0801aa1d   Thumb Code    22  stm32f2xx_adc.o(.text)
    ADC_Init                                 0x0801aa33   Thumb Code    92  stm32f2xx_adc.o(.text)
    ADC_StructInit                           0x0801aa8f   Thumb Code    24  stm32f2xx_adc.o(.text)
    ADC_CommonInit                           0x0801aaa7   Thumb Code    46  stm32f2xx_adc.o(.text)
    ADC_CommonStructInit                     0x0801aad5   Thumb Code    14  stm32f2xx_adc.o(.text)
    ADC_Cmd                                  0x0801aae3   Thumb Code    22  stm32f2xx_adc.o(.text)
    ADC_AnalogWatchdogCmd                    0x0801aaf9   Thumb Code    22  stm32f2xx_adc.o(.text)
    ADC_AnalogWatchdogThresholdsConfig       0x0801ab0f   Thumb Code     6  stm32f2xx_adc.o(.text)
    ADC_AnalogWatchdogSingleChannelConfig    0x0801ab15   Thumb Code    20  stm32f2xx_adc.o(.text)
    ADC_TempSensorVrefintCmd                 0x0801ab29   Thumb Code    34  stm32f2xx_adc.o(.text)
    ADC_VBATCmd                              0x0801ab4b   Thumb Code    34  stm32f2xx_adc.o(.text)
    ADC_RegularChannelConfig                 0x0801ab6d   Thumb Code   224  stm32f2xx_adc.o(.text)
    ADC_SoftwareStartConv                    0x0801ac4d   Thumb Code    10  stm32f2xx_adc.o(.text)
    ADC_GetSoftwareStartConvStatus           0x0801ac57   Thumb Code    26  stm32f2xx_adc.o(.text)
    ADC_EOCOnEachRegularChannelCmd           0x0801ac71   Thumb Code    22  stm32f2xx_adc.o(.text)
    ADC_ContinuousModeCmd                    0x0801ac87   Thumb Code    22  stm32f2xx_adc.o(.text)
    ADC_DiscModeChannelCountConfig           0x0801ac9d   Thumb Code    28  stm32f2xx_adc.o(.text)
    ADC_DiscModeCmd                          0x0801acb9   Thumb Code    22  stm32f2xx_adc.o(.text)
    ADC_GetConversionValue                   0x0801accf   Thumb Code     8  stm32f2xx_adc.o(.text)
    ADC_GetMultiModeConversionValue          0x0801acd7   Thumb Code     6  stm32f2xx_adc.o(.text)
    ADC_DMACmd                               0x0801acdd   Thumb Code    22  stm32f2xx_adc.o(.text)
    ADC_DMARequestAfterLastTransferCmd       0x0801acf3   Thumb Code    22  stm32f2xx_adc.o(.text)
    ADC_MultiModeDMARequestAfterLastTransferCmd 0x0801ad09   Thumb Code    34  stm32f2xx_adc.o(.text)
    ADC_InjectedChannelConfig                0x0801ad2b   Thumb Code   154  stm32f2xx_adc.o(.text)
    ADC_InjectedSequencerLengthConfig        0x0801adc5   Thumb Code    28  stm32f2xx_adc.o(.text)
    ADC_SetInjectedOffset                    0x0801ade1   Thumb Code    14  stm32f2xx_adc.o(.text)
    ADC_ExternalTrigInjectedConvConfig       0x0801adef   Thumb Code    20  stm32f2xx_adc.o(.text)
    ADC_ExternalTrigInjectedConvEdgeConfig   0x0801ae03   Thumb Code    20  stm32f2xx_adc.o(.text)
    ADC_SoftwareStartInjectedConv            0x0801ae17   Thumb Code    38  stm32f2xx_adc.o(.text)
    ADC_GetSoftwareStartInjectedConvCmdStatus 0x0801ae3d   Thumb Code    26  stm32f2xx_adc.o(.text)
    ADC_AutoInjectedConvCmd                  0x0801ae57   Thumb Code    22  stm32f2xx_adc.o(.text)
    ADC_InjectedDiscModeCmd                  0x0801ae6d   Thumb Code    22  stm32f2xx_adc.o(.text)
    ADC_GetInjectedConversionValue           0x0801ae83   Thumb Code    20  stm32f2xx_adc.o(.text)
    ADC_ITConfig                             0x0801ae97   Thumb Code    40  stm32f2xx_adc.o(.text)
    ADC_GetFlagStatus                        0x0801aebf   Thumb Code    24  stm32f2xx_adc.o(.text)
    ADC_ClearFlag                            0x0801aed7   Thumb Code     8  stm32f2xx_adc.o(.text)
    ADC_GetITStatus                          0x0801aedf   Thumb Code    50  stm32f2xx_adc.o(.text)
    ADC_ClearITPendingBit                    0x0801af11   Thumb Code    16  stm32f2xx_adc.o(.text)
    DMA_DeInit                               0x0801af21   Thumb Code   300  stm32f2xx_dma.o(.text)
    DMA_Init                                 0x0801b04d   Thumb Code   110  stm32f2xx_dma.o(.text)
    DMA_StructInit                           0x0801b0bb   Thumb Code    36  stm32f2xx_dma.o(.text)
    DMA_Cmd                                  0x0801b0df   Thumb Code    22  stm32f2xx_dma.o(.text)
    DMA_PeriphIncOffsetSizeConfig            0x0801b0f5   Thumb Code    22  stm32f2xx_dma.o(.text)
    DMA_FlowControllerConfig                 0x0801b10b   Thumb Code    22  stm32f2xx_dma.o(.text)
    DMA_SetCurrDataCounter                   0x0801b121   Thumb Code     4  stm32f2xx_dma.o(.text)
    DMA_GetCurrDataCounter                   0x0801b125   Thumb Code     8  stm32f2xx_dma.o(.text)
    DMA_DoubleBufferModeConfig               0x0801b12d   Thumb Code    24  stm32f2xx_dma.o(.text)
    DMA_DoubleBufferModeCmd                  0x0801b145   Thumb Code    22  stm32f2xx_dma.o(.text)
    DMA_MemoryTargetConfig                   0x0801b15b   Thumb Code    10  stm32f2xx_dma.o(.text)
    DMA_GetCurrentMemoryTarget               0x0801b165   Thumb Code    26  stm32f2xx_dma.o(.text)
    DMA_GetCmdStatus                         0x0801b17f   Thumb Code    26  stm32f2xx_dma.o(.text)
    DMA_GetFIFOStatus                        0x0801b199   Thumb Code    14  stm32f2xx_dma.o(.text)
    DMA_GetFlagStatus                        0x0801b1a7   Thumb Code    58  stm32f2xx_dma.o(.text)
    DMA_ClearFlag                            0x0801b1e1   Thumb Code    40  stm32f2xx_dma.o(.text)
    DMA_ITConfig                             0x0801b209   Thumb Code    62  stm32f2xx_dma.o(.text)
    DMA_GetITStatus                          0x0801b247   Thumb Code    88  stm32f2xx_dma.o(.text)
    DMA_ClearITPendingBit                    0x0801b29f   Thumb Code    40  stm32f2xx_dma.o(.text)
    EXTI_DeInit                              0x0801b2f9   Thumb Code    34  stm32f2xx_exti.o(.text)
    EXTI_Init                                0x0801b31b   Thumb Code   158  stm32f2xx_exti.o(.text)
    EXTI_StructInit                          0x0801b3b9   Thumb Code    22  stm32f2xx_exti.o(.text)
    EXTI_GenerateSWInterrupt                 0x0801b3cf   Thumb Code    14  stm32f2xx_exti.o(.text)
    EXTI_GetFlagStatus                       0x0801b3dd   Thumb Code    26  stm32f2xx_exti.o(.text)
    EXTI_ClearFlag                           0x0801b3f7   Thumb Code     6  stm32f2xx_exti.o(.text)
    EXTI_GetITStatus                         0x0801b3fd   Thumb Code    38  stm32f2xx_exti.o(.text)
    EXTI_ClearITPendingBit                   0x0801b423   Thumb Code     6  stm32f2xx_exti.o(.text)
    FLASH_SetLatency                         0x0801b441   Thumb Code     6  stm32f2xx_flash.o(.text)
    FLASH_PrefetchBufferCmd                  0x0801b447   Thumb Code    30  stm32f2xx_flash.o(.text)
    FLASH_InstructionCacheCmd                0x0801b465   Thumb Code    30  stm32f2xx_flash.o(.text)
    FLASH_DataCacheCmd                       0x0801b483   Thumb Code    30  stm32f2xx_flash.o(.text)
    FLASH_InstructionCacheReset              0x0801b4a1   Thumb Code    14  stm32f2xx_flash.o(.text)
    FLASH_DataCacheReset                     0x0801b4af   Thumb Code    14  stm32f2xx_flash.o(.text)
    FLASH_Unlock                             0x0801b4bd   Thumb Code    24  stm32f2xx_flash.o(.text)
    FLASH_Lock                               0x0801b4d5   Thumb Code    14  stm32f2xx_flash.o(.text)
    FLASH_GetStatus                          0x0801b4e3   Thumb Code    78  stm32f2xx_flash.o(.text)
    FLASH_WaitForLastOperation               0x0801b531   Thumb Code    28  stm32f2xx_flash.o(.text)
    FLASH_EraseSector                        0x0801b54d   Thumb Code   142  stm32f2xx_flash.o(.text)
    FLASH_EraseAllSectors                    0x0801b5db   Thumb Code   114  stm32f2xx_flash.o(.text)
    FLASH_ProgramDoubleWord                  0x0801b64d   Thumb Code    80  stm32f2xx_flash.o(.text)
    FLASH_ProgramWord                        0x0801b69d   Thumb Code    76  stm32f2xx_flash.o(.text)
    FLASH_ProgramHalfWord                    0x0801b6e9   Thumb Code    76  stm32f2xx_flash.o(.text)
    FLASH_ProgramByte                        0x0801b735   Thumb Code    72  stm32f2xx_flash.o(.text)
    FLASH_OB_Unlock                          0x0801b77d   Thumb Code    24  stm32f2xx_flash.o(.text)
    FLASH_OB_Lock                            0x0801b795   Thumb Code    14  stm32f2xx_flash.o(.text)
    FLASH_OB_WRPConfig                       0x0801b7a3   Thumb Code    52  stm32f2xx_flash.o(.text)
    FLASH_OB_RDPConfig                       0x0801b7d7   Thumb Code    24  stm32f2xx_flash.o(.text)
    FLASH_OB_UserConfig                      0x0801b7ef   Thumb Code   102  stm32f2xx_flash.o(.text)
    FLASH_OB_BORConfig                       0x0801b855   Thumb Code    24  stm32f2xx_flash.o(.text)
    FLASH_OB_Launch                          0x0801b86d   Thumb Code    28  stm32f2xx_flash.o(.text)
    FLASH_OB_GetUser                         0x0801b889   Thumb Code    10  stm32f2xx_flash.o(.text)
    FLASH_OB_GetWRP                          0x0801b893   Thumb Code     8  stm32f2xx_flash.o(.text)
    FLASH_OB_GetRDP                          0x0801b89b   Thumb Code    24  stm32f2xx_flash.o(.text)
    FLASH_OB_GetBOR                          0x0801b8b3   Thumb Code    10  stm32f2xx_flash.o(.text)
    FLASH_ITConfig                           0x0801b8bd   Thumb Code    30  stm32f2xx_flash.o(.text)
    FLASH_GetFlagStatus                      0x0801b8db   Thumb Code    26  stm32f2xx_flash.o(.text)
    FLASH_ClearFlag                          0x0801b8f5   Thumb Code     6  stm32f2xx_flash.o(.text)
    GPIO_DeInit                              0x0801b90d   Thumb Code   220  stm32f2xx_gpio.o(.text)
    GPIO_Init                                0x0801b9e9   Thumb Code   202  stm32f2xx_gpio.o(.text)
    GPIO_StructInit                          0x0801bab3   Thumb Code    20  stm32f2xx_gpio.o(.text)
    GPIO_PinLockConfig                       0x0801bac7   Thumb Code    20  stm32f2xx_gpio.o(.text)
    GPIO_ReadInputDataBit                    0x0801badb   Thumb Code    24  stm32f2xx_gpio.o(.text)
    GPIO_ReadInputData                       0x0801baf3   Thumb Code     8  stm32f2xx_gpio.o(.text)
    GPIO_ReadOutputDataBit                   0x0801bafb   Thumb Code    24  stm32f2xx_gpio.o(.text)
    GPIO_ReadOutputData                      0x0801bb13   Thumb Code     8  stm32f2xx_gpio.o(.text)
    GPIO_SetBits                             0x0801bb1b   Thumb Code     4  stm32f2xx_gpio.o(.text)
    GPIO_ResetBits                           0x0801bb1f   Thumb Code     4  stm32f2xx_gpio.o(.text)
    GPIO_WriteBit                            0x0801bb23   Thumb Code    10  stm32f2xx_gpio.o(.text)
    GPIO_Write                               0x0801bb2d   Thumb Code     4  stm32f2xx_gpio.o(.text)
    GPIO_ToggleBits                          0x0801bb31   Thumb Code    10  stm32f2xx_gpio.o(.text)
    GPIO_PinAFConfig                         0x0801bb3b   Thumb Code    94  stm32f2xx_gpio.o(.text)
    I2C_DeInit                               0x0801bbbd   Thumb Code    82  stm32f2xx_i2c.o(.text)
    I2C_Init                                 0x0801bc0f   Thumb Code   246  stm32f2xx_i2c.o(.text)
    I2C_StructInit                           0x0801bd05   Thumb Code    34  stm32f2xx_i2c.o(.text)
    I2C_Cmd                                  0x0801bd27   Thumb Code    26  stm32f2xx_i2c.o(.text)
    I2C_GenerateSTART                        0x0801bd41   Thumb Code    26  stm32f2xx_i2c.o(.text)
    I2C_GenerateSTOP                         0x0801bd5b   Thumb Code    26  stm32f2xx_i2c.o(.text)
    I2C_Send7bitAddress                      0x0801bd75   Thumb Code    16  stm32f2xx_i2c.o(.text)
    I2C_AcknowledgeConfig                    0x0801bd85   Thumb Code    26  stm32f2xx_i2c.o(.text)
    I2C_OwnAddress2Config                    0x0801bd9f   Thumb Code    28  stm32f2xx_i2c.o(.text)
    I2C_DualAddressCmd                       0x0801bdbb   Thumb Code    26  stm32f2xx_i2c.o(.text)
    I2C_GeneralCallCmd                       0x0801bdd5   Thumb Code    26  stm32f2xx_i2c.o(.text)
    I2C_SoftwareResetCmd                     0x0801bdef   Thumb Code    22  stm32f2xx_i2c.o(.text)
    I2C_StretchClockCmd                      0x0801be05   Thumb Code    26  stm32f2xx_i2c.o(.text)
    I2C_FastModeDutyCycleConfig              0x0801be1f   Thumb Code    30  stm32f2xx_i2c.o(.text)
    I2C_NACKPositionConfig                   0x0801be3d   Thumb Code    30  stm32f2xx_i2c.o(.text)
    I2C_SMBusAlertConfig                     0x0801be5b   Thumb Code    30  stm32f2xx_i2c.o(.text)
    I2C_ARPCmd                               0x0801be79   Thumb Code    26  stm32f2xx_i2c.o(.text)
    I2C_SendData                             0x0801be93   Thumb Code     4  stm32f2xx_i2c.o(.text)
    I2C_ReceiveData                          0x0801be97   Thumb Code     8  stm32f2xx_i2c.o(.text)
    I2C_TransmitPEC                          0x0801be9f   Thumb Code    26  stm32f2xx_i2c.o(.text)
    I2C_PECPositionConfig                    0x0801beb9   Thumb Code    30  stm32f2xx_i2c.o(.text)
    I2C_CalculatePEC                         0x0801bed7   Thumb Code    26  stm32f2xx_i2c.o(.text)
    I2C_GetPEC                               0x0801bef1   Thumb Code    10  stm32f2xx_i2c.o(.text)
    I2C_DMACmd                               0x0801befb   Thumb Code    26  stm32f2xx_i2c.o(.text)
    I2C_DMALastTransferCmd                   0x0801bf15   Thumb Code    26  stm32f2xx_i2c.o(.text)
    I2C_ReadRegister                         0x0801bf2f   Thumb Code    14  stm32f2xx_i2c.o(.text)
    I2C_ITConfig                             0x0801bf3d   Thumb Code    30  stm32f2xx_i2c.o(.text)
    I2C_CheckEvent                           0x0801bf5b   Thumb Code    50  stm32f2xx_i2c.o(.text)
    I2C_GetLastEvent                         0x0801bf8d   Thumb Code    56  stm32f2xx_i2c.o(.text)
    I2C_GetFlagStatus                        0x0801bfc5   Thumb Code    56  stm32f2xx_i2c.o(.text)
    I2C_ClearFlag                            0x0801bffd   Thumb Code    16  stm32f2xx_i2c.o(.text)
    I2C_GetITStatus                          0x0801c00d   Thumb Code    44  stm32f2xx_i2c.o(.text)
    I2C_ClearITPendingBit                    0x0801c039   Thumb Code    16  stm32f2xx_i2c.o(.text)
    RCC_DeInit                               0x0801c049   Thumb Code    64  stm32f2xx_rcc.o(.text)
    RCC_HSEConfig                            0x0801c089   Thumb Code    14  stm32f2xx_rcc.o(.text)
    RCC_GetFlagStatus                        0x0801c097   Thumb Code    68  stm32f2xx_rcc.o(.text)
    RCC_WaitForHSEStartUp                    0x0801c0db   Thumb Code    56  stm32f2xx_rcc.o(.text)
    RCC_AdjustHSICalibrationValue            0x0801c113   Thumb Code    22  stm32f2xx_rcc.o(.text)
    RCC_HSICmd                               0x0801c129   Thumb Code     6  stm32f2xx_rcc.o(.text)
    RCC_LSEConfig                            0x0801c12f   Thumb Code    46  stm32f2xx_rcc.o(.text)
    RCC_LSICmd                               0x0801c15d   Thumb Code     6  stm32f2xx_rcc.o(.text)
    RCC_PLLConfig                            0x0801c163   Thumb Code    34  stm32f2xx_rcc.o(.text)
    RCC_PLLCmd                               0x0801c185   Thumb Code     6  stm32f2xx_rcc.o(.text)
    RCC_PLLI2SConfig                         0x0801c18b   Thumb Code    14  stm32f2xx_rcc.o(.text)
    RCC_PLLI2SCmd                            0x0801c199   Thumb Code     6  stm32f2xx_rcc.o(.text)
    RCC_ClockSecuritySystemCmd               0x0801c19f   Thumb Code     6  stm32f2xx_rcc.o(.text)
    RCC_MCO1Config                           0x0801c1a5   Thumb Code    28  stm32f2xx_rcc.o(.text)
    RCC_MCO2Config                           0x0801c1c1   Thumb Code    28  stm32f2xx_rcc.o(.text)
    RCC_SYSCLKConfig                         0x0801c1dd   Thumb Code    22  stm32f2xx_rcc.o(.text)
    RCC_GetSYSCLKSource                      0x0801c1f3   Thumb Code    10  stm32f2xx_rcc.o(.text)
    RCC_HCLKConfig                           0x0801c1fd   Thumb Code    22  stm32f2xx_rcc.o(.text)
    RCC_PCLK1Config                          0x0801c213   Thumb Code    22  stm32f2xx_rcc.o(.text)
    RCC_PCLK2Config                          0x0801c229   Thumb Code    22  stm32f2xx_rcc.o(.text)
    RCC_GetClocksFreq                        0x0801c23f   Thumb Code   222  stm32f2xx_rcc.o(.text)
    RCC_RTCCLKConfig                         0x0801c31d   Thumb Code    54  stm32f2xx_rcc.o(.text)
    RCC_RTCCLKCmd                            0x0801c353   Thumb Code     6  stm32f2xx_rcc.o(.text)
    RCC_BackupResetCmd                       0x0801c359   Thumb Code     6  stm32f2xx_rcc.o(.text)
    RCC_I2SCLKConfig                         0x0801c35f   Thumb Code     6  stm32f2xx_rcc.o(.text)
    RCC_AHB1PeriphClockCmd                   0x0801c365   Thumb Code    30  stm32f2xx_rcc.o(.text)
    RCC_AHB2PeriphClockCmd                   0x0801c383   Thumb Code    30  stm32f2xx_rcc.o(.text)
    RCC_AHB3PeriphClockCmd                   0x0801c3a1   Thumb Code    30  stm32f2xx_rcc.o(.text)
    RCC_APB1PeriphClockCmd                   0x0801c3bf   Thumb Code    30  stm32f2xx_rcc.o(.text)
    RCC_APB2PeriphClockCmd                   0x0801c3dd   Thumb Code    30  stm32f2xx_rcc.o(.text)
    RCC_AHB1PeriphResetCmd                   0x0801c3fb   Thumb Code    30  stm32f2xx_rcc.o(.text)
    RCC_AHB2PeriphResetCmd                   0x0801c419   Thumb Code   136  stm32f2xx_rcc.o(.text)
    RCC_AHB3PeriphResetCmd                   0x0801c4a1   Thumb Code    30  stm32f2xx_rcc.o(.text)
    RCC_APB1PeriphResetCmd                   0x0801c4bf   Thumb Code    30  stm32f2xx_rcc.o(.text)
    RCC_APB2PeriphResetCmd                   0x0801c4dd   Thumb Code    30  stm32f2xx_rcc.o(.text)
    RCC_AHB1PeriphClockLPModeCmd             0x0801c4fb   Thumb Code    30  stm32f2xx_rcc.o(.text)
    RCC_AHB2PeriphClockLPModeCmd             0x0801c519   Thumb Code    30  stm32f2xx_rcc.o(.text)
    RCC_AHB3PeriphClockLPModeCmd             0x0801c537   Thumb Code    30  stm32f2xx_rcc.o(.text)
    RCC_APB1PeriphClockLPModeCmd             0x0801c555   Thumb Code    30  stm32f2xx_rcc.o(.text)
    RCC_APB2PeriphClockLPModeCmd             0x0801c573   Thumb Code    30  stm32f2xx_rcc.o(.text)
    RCC_ITConfig                             0x0801c591   Thumb Code    36  stm32f2xx_rcc.o(.text)
    RCC_ClearFlag                            0x0801c5b5   Thumb Code    14  stm32f2xx_rcc.o(.text)
    RCC_GetITStatus                          0x0801c5c3   Thumb Code    26  stm32f2xx_rcc.o(.text)
    RCC_ClearITPendingBit                    0x0801c5dd   Thumb Code     6  stm32f2xx_rcc.o(.text)
    SYSCFG_DeInit                            0x0801c619   Thumb Code    22  stm32f2xx_syscfg.o(.text)
    SYSCFG_MemoryRemapConfig                 0x0801c62f   Thumb Code     6  stm32f2xx_syscfg.o(.text)
    SYSCFG_EXTILineConfig                    0x0801c635   Thumb Code    84  stm32f2xx_syscfg.o(.text)
    SYSCFG_ETH_MediaInterfaceConfig          0x0801c689   Thumb Code     6  stm32f2xx_syscfg.o(.text)
    SYSCFG_CompensationCellCmd               0x0801c68f   Thumb Code     6  stm32f2xx_syscfg.o(.text)
    SYSCFG_GetCompensationCellStatus         0x0801c695   Thumb Code    26  stm32f2xx_syscfg.o(.text)
    TIM_DeInit                               0x0801c6c5   Thumb Code   346  stm32f2xx_tim.o(.text)
    TIM_TimeBaseInit                         0x0801c81f   Thumb Code   116  stm32f2xx_tim.o(.text)
    TIM_TimeBaseStructInit                   0x0801c893   Thumb Code    20  stm32f2xx_tim.o(.text)
    TIM_PrescalerConfig                      0x0801c8a7   Thumb Code     6  stm32f2xx_tim.o(.text)
    TIM_CounterModeConfig                    0x0801c8ad   Thumb Code    24  stm32f2xx_tim.o(.text)
    TIM_SetCounter                           0x0801c8c5   Thumb Code     4  stm32f2xx_tim.o(.text)
    TIM_SetAutoreload                        0x0801c8c9   Thumb Code     4  stm32f2xx_tim.o(.text)
    TIM_GetCounter                           0x0801c8cd   Thumb Code     6  stm32f2xx_tim.o(.text)
    TIM_GetPrescaler                         0x0801c8d3   Thumb Code     6  stm32f2xx_tim.o(.text)
    TIM_UpdateDisableConfig                  0x0801c8d9   Thumb Code    26  stm32f2xx_tim.o(.text)
    TIM_UpdateRequestConfig                  0x0801c8f3   Thumb Code    26  stm32f2xx_tim.o(.text)
    TIM_ARRPreloadConfig                     0x0801c90d   Thumb Code    26  stm32f2xx_tim.o(.text)
    TIM_SelectOnePulseMode                   0x0801c927   Thumb Code    22  stm32f2xx_tim.o(.text)
    TIM_SetClockDivision                     0x0801c93d   Thumb Code    22  stm32f2xx_tim.o(.text)
    TIM_Cmd                                  0x0801c953   Thumb Code    26  stm32f2xx_tim.o(.text)
    TIM_OC1Init                              0x0801c96d   Thumb Code   150  stm32f2xx_tim.o(.text)
    TIM_OC2Init                              0x0801ca03   Thumb Code   230  stm32f2xx_tim.o(.text)
    TIM_OC3Init                              0x0801cae9   Thumb Code   174  stm32f2xx_tim.o(.text)
    TIM_OC4Init                              0x0801cb97   Thumb Code   124  stm32f2xx_tim.o(.text)
    TIM_OCStructInit                         0x0801cc13   Thumb Code    22  stm32f2xx_tim.o(.text)
    TIM_SelectOCxM                           0x0801cc29   Thumb Code   108  stm32f2xx_tim.o(.text)
    TIM_SetCompare1                          0x0801cc95   Thumb Code     4  stm32f2xx_tim.o(.text)
    TIM_SetCompare2                          0x0801cc99   Thumb Code     4  stm32f2xx_tim.o(.text)
    TIM_SetCompare3                          0x0801cc9d   Thumb Code     4  stm32f2xx_tim.o(.text)
    TIM_SetCompare4                          0x0801cca1   Thumb Code     4  stm32f2xx_tim.o(.text)
    TIM_ForcedOC1Config                      0x0801cca5   Thumb Code    24  stm32f2xx_tim.o(.text)
    TIM_ForcedOC2Config                      0x0801ccbd   Thumb Code    28  stm32f2xx_tim.o(.text)
    TIM_ForcedOC3Config                      0x0801ccd9   Thumb Code    24  stm32f2xx_tim.o(.text)
    TIM_ForcedOC4Config                      0x0801ccf1   Thumb Code    28  stm32f2xx_tim.o(.text)
    TIM_OC1PreloadConfig                     0x0801cd0d   Thumb Code    24  stm32f2xx_tim.o(.text)
    TIM_OC2PreloadConfig                     0x0801cd25   Thumb Code    28  stm32f2xx_tim.o(.text)
    TIM_OC3PreloadConfig                     0x0801cd41   Thumb Code    24  stm32f2xx_tim.o(.text)
    TIM_OC4PreloadConfig                     0x0801cd59   Thumb Code    28  stm32f2xx_tim.o(.text)
    TIM_OC1FastConfig                        0x0801cd75   Thumb Code    24  stm32f2xx_tim.o(.text)
    TIM_OC2FastConfig                        0x0801cd8d   Thumb Code    28  stm32f2xx_tim.o(.text)
    TIM_OC3FastConfig                        0x0801cda9   Thumb Code    24  stm32f2xx_tim.o(.text)
    TIM_OC4FastConfig                        0x0801cdc1   Thumb Code    28  stm32f2xx_tim.o(.text)
    TIM_ClearOC1Ref                          0x0801cddd   Thumb Code    24  stm32f2xx_tim.o(.text)
    TIM_ClearOC2Ref                          0x0801cdf5   Thumb Code    24  stm32f2xx_tim.o(.text)
    TIM_ClearOC3Ref                          0x0801ce0d   Thumb Code    24  stm32f2xx_tim.o(.text)
    TIM_ClearOC4Ref                          0x0801ce25   Thumb Code    24  stm32f2xx_tim.o(.text)
    TIM_OC1PolarityConfig                    0x0801ce3d   Thumb Code    24  stm32f2xx_tim.o(.text)
    TIM_OC1NPolarityConfig                   0x0801ce55   Thumb Code    24  stm32f2xx_tim.o(.text)
    TIM_OC2PolarityConfig                    0x0801ce6d   Thumb Code    28  stm32f2xx_tim.o(.text)
    TIM_OC2NPolarityConfig                   0x0801ce89   Thumb Code    28  stm32f2xx_tim.o(.text)
    TIM_OC3PolarityConfig                    0x0801cea5   Thumb Code    28  stm32f2xx_tim.o(.text)
    TIM_OC3NPolarityConfig                   0x0801cec1   Thumb Code    28  stm32f2xx_tim.o(.text)
    TIM_OC4PolarityConfig                    0x0801cedd   Thumb Code    28  stm32f2xx_tim.o(.text)
    TIM_CCxCmd                               0x0801cef9   Thumb Code    56  stm32f2xx_tim.o(.text)
    TIM_CCxNCmd                              0x0801cf31   Thumb Code    46  stm32f2xx_tim.o(.text)
    TIM_SetIC4Prescaler                      0x0801cf5f   Thumb Code    26  stm32f2xx_tim.o(.text)
    TIM_SetIC3Prescaler                      0x0801cfcd   Thumb Code    22  stm32f2xx_tim.o(.text)
    TIM_SetIC2Prescaler                      0x0801d033   Thumb Code    26  stm32f2xx_tim.o(.text)
    TIM_SetIC1Prescaler                      0x0801d0a1   Thumb Code    22  stm32f2xx_tim.o(.text)
    TIM_ICInit                               0x0801d0fd   Thumb Code   110  stm32f2xx_tim.o(.text)
    TIM_ICStructInit                         0x0801d16b   Thumb Code    24  stm32f2xx_tim.o(.text)
    TIM_PWMIConfig                           0x0801d183   Thumb Code   136  stm32f2xx_tim.o(.text)
    TIM_GetCapture1                          0x0801d20b   Thumb Code     6  stm32f2xx_tim.o(.text)
    TIM_GetCapture2                          0x0801d211   Thumb Code     6  stm32f2xx_tim.o(.text)
    TIM_GetCapture3                          0x0801d217   Thumb Code     6  stm32f2xx_tim.o(.text)
    TIM_GetCapture4                          0x0801d21d   Thumb Code     6  stm32f2xx_tim.o(.text)
    TIM_BDTRConfig                           0x0801d223   Thumb Code    44  stm32f2xx_tim.o(.text)
    TIM_BDTRStructInit                       0x0801d24f   Thumb Code    20  stm32f2xx_tim.o(.text)
    TIM_CtrlPWMOutputs                       0x0801d263   Thumb Code    30  stm32f2xx_tim.o(.text)
    TIM_SelectCOM                            0x0801d281   Thumb Code    26  stm32f2xx_tim.o(.text)
    TIM_CCPreloadControl                     0x0801d29b   Thumb Code    26  stm32f2xx_tim.o(.text)
    TIM_ITConfig                             0x0801d2b5   Thumb Code    30  stm32f2xx_tim.o(.text)
    TIM_GenerateEvent                        0x0801d2d3   Thumb Code     4  stm32f2xx_tim.o(.text)
    TIM_GetFlagStatus                        0x0801d2d7   Thumb Code    24  stm32f2xx_tim.o(.text)
    TIM_ClearFlag                            0x0801d2ef   Thumb Code     8  stm32f2xx_tim.o(.text)
    TIM_GetITStatus                          0x0801d2f7   Thumb Code    40  stm32f2xx_tim.o(.text)
    TIM_ClearITPendingBit                    0x0801d31f   Thumb Code     8  stm32f2xx_tim.o(.text)
    TIM_DMAConfig                            0x0801d327   Thumb Code    10  stm32f2xx_tim.o(.text)
    TIM_DMACmd                               0x0801d331   Thumb Code    30  stm32f2xx_tim.o(.text)
    TIM_SelectCCDMA                          0x0801d34f   Thumb Code    26  stm32f2xx_tim.o(.text)
    TIM_InternalClockConfig                  0x0801d369   Thumb Code    14  stm32f2xx_tim.o(.text)
    TIM_SelectInputTrigger                   0x0801d377   Thumb Code    24  stm32f2xx_tim.o(.text)
    TIM_ITRxExternalClockConfig              0x0801d38f   Thumb Code    24  stm32f2xx_tim.o(.text)
    TIM_TIxExternalClockConfig               0x0801d3a7   Thumb Code    62  stm32f2xx_tim.o(.text)
    TIM_ETRConfig                            0x0801d3e5   Thumb Code    32  stm32f2xx_tim.o(.text)
    TIM_ETRClockMode1Config                  0x0801d405   Thumb Code    60  stm32f2xx_tim.o(.text)
    TIM_ETRClockMode2Config                  0x0801d441   Thumb Code    32  stm32f2xx_tim.o(.text)
    TIM_SelectOutputTrigger                  0x0801d461   Thumb Code    22  stm32f2xx_tim.o(.text)
    TIM_SelectSlaveMode                      0x0801d477   Thumb Code    22  stm32f2xx_tim.o(.text)
    TIM_SelectMasterSlaveMode                0x0801d48d   Thumb Code    22  stm32f2xx_tim.o(.text)
    TIM_EncoderInterfaceConfig               0x0801d4a3   Thumb Code    78  stm32f2xx_tim.o(.text)
    TIM_SelectHallSensor                     0x0801d4f1   Thumb Code    26  stm32f2xx_tim.o(.text)
    TIM_RemapConfig                          0x0801d50b   Thumb Code     6  stm32f2xx_tim.o(.text)
    USART_DeInit                             0x0801d511   Thumb Code   156  stm32f2xx_usart.o(.text)
    USART_Init                               0x0801d5ad   Thumb Code   240  stm32f2xx_usart.o(.text)
    USART_StructInit                         0x0801d69d   Thumb Code    30  stm32f2xx_usart.o(.text)
    USART_ClockInit                          0x0801d6bb   Thumb Code    42  stm32f2xx_usart.o(.text)
    USART_ClockStructInit                    0x0801d6e5   Thumb Code    14  stm32f2xx_usart.o(.text)
    USART_Cmd                                0x0801d6f3   Thumb Code    26  stm32f2xx_usart.o(.text)
    USART_SetPrescaler                       0x0801d70d   Thumb Code    18  stm32f2xx_usart.o(.text)
    USART_OverSampling8Cmd                   0x0801d71f   Thumb Code    22  stm32f2xx_usart.o(.text)
    USART_OneBitMethodCmd                    0x0801d735   Thumb Code    26  stm32f2xx_usart.o(.text)
    USART_SendData                           0x0801d74f   Thumb Code     8  stm32f2xx_usart.o(.text)
    USART_ReceiveData                        0x0801d757   Thumb Code    10  stm32f2xx_usart.o(.text)
    USART_SetAddress                         0x0801d761   Thumb Code    22  stm32f2xx_usart.o(.text)
    USART_ReceiverWakeUpCmd                  0x0801d777   Thumb Code    26  stm32f2xx_usart.o(.text)
    USART_WakeUpConfig                       0x0801d791   Thumb Code    22  stm32f2xx_usart.o(.text)
    USART_LINBreakDetectLengthConfig         0x0801d7a7   Thumb Code    22  stm32f2xx_usart.o(.text)
    USART_LINCmd                             0x0801d7bd   Thumb Code    26  stm32f2xx_usart.o(.text)
    USART_SendBreak                          0x0801d7d7   Thumb Code    10  stm32f2xx_usart.o(.text)
    USART_HalfDuplexCmd                      0x0801d7e1   Thumb Code    26  stm32f2xx_usart.o(.text)
    USART_SetGuardTime                       0x0801d7fb   Thumb Code    16  stm32f2xx_usart.o(.text)
    USART_SmartCardCmd                       0x0801d80b   Thumb Code    26  stm32f2xx_usart.o(.text)
    USART_SmartCardNACKCmd                   0x0801d825   Thumb Code    26  stm32f2xx_usart.o(.text)
    USART_IrDAConfig                         0x0801d83f   Thumb Code    22  stm32f2xx_usart.o(.text)
    USART_IrDACmd                            0x0801d855   Thumb Code    26  stm32f2xx_usart.o(.text)
    USART_DMACmd                             0x0801d86f   Thumb Code    30  stm32f2xx_usart.o(.text)
    USART_ITConfig                           0x0801d88d   Thumb Code    88  stm32f2xx_usart.o(.text)
    USART_GetFlagStatus                      0x0801d8e5   Thumb Code    58  stm32f2xx_usart.o(.text)
    USART_ClearFlag                          0x0801d91f   Thumb Code    20  stm32f2xx_usart.o(.text)
    USART_GetITStatus                        0x0801d933   Thumb Code   104  stm32f2xx_usart.o(.text)
    USART_ClearITPendingBit                  0x0801d99b   Thumb Code    40  stm32f2xx_usart.o(.text)
    __aeabi_llsr                             0x0801d9c3   Thumb Code     0  llushr.o(.text)
    _ll_ushift_r                             0x0801d9c3   Thumb Code    38  llushr.o(.text)
    __c89vsnprintf                           0x0801d9e9   Thumb Code    46  c89vsnprintf.o(.text)
    __aeabi_memclr                           0x0801da1d   Thumb Code     0  rt_memclr.o(.text)
    __rt_memclr                              0x0801da1d   Thumb Code    68  rt_memclr.o(.text)
    _memset                                  0x0801da21   Thumb Code     0  rt_memclr.o(.text)
    __aeabi_memclr4                          0x0801da61   Thumb Code     0  rt_memclr_w.o(.text)
    __aeabi_memclr8                          0x0801da61   Thumb Code     0  rt_memclr_w.o(.text)
    __rt_memclr_w                            0x0801da61   Thumb Code    78  rt_memclr_w.o(.text)
    _memset_w                                0x0801da65   Thumb Code     0  rt_memclr_w.o(.text)
    __use_two_region_memory                  0x0801daaf   Thumb Code     2  heapauxi.o(.text)
    __rt_heap_escrow$2region                 0x0801dab1   Thumb Code     2  heapauxi.o(.text)
    __rt_heap_expand$2region                 0x0801dab3   Thumb Code     2  heapauxi.o(.text)
    _printf_pre_padding                      0x0801dab5   Thumb Code    46  _printf_pad.o(.text)
    _printf_post_padding                     0x0801dae3   Thumb Code    36  _printf_pad.o(.text)
    _printf_truncate_signed                  0x0801db07   Thumb Code    18  _printf_truncate.o(.text)
    _printf_truncate_unsigned                0x0801db19   Thumb Code    18  _printf_truncate.o(.text)
    _printf_str                              0x0801db2b   Thumb Code    82  _printf_str.o(.text)
    _printf_int_dec                          0x0801db7d   Thumb Code   102  _printf_dec.o(.text)
    _printf_charcount                        0x0801dbf5   Thumb Code    42  _printf_charcount.o(.text)
    _printf_char_common                      0x0801dc2b   Thumb Code    32  _printf_char_common.o(.text)
    _sputc                                   0x0801dc51   Thumb Code    10  _sputc.o(.text)
    _snputc                                  0x0801dc5b   Thumb Code    16  _snputc.o(.text)
    _printf_wctomb                           0x0801dc6d   Thumb Code   182  _printf_wctomb.o(.text)
    _printf_longlong_dec                     0x0801dd29   Thumb Code   104  _printf_longlong_dec.o(.text)
    _printf_longlong_oct                     0x0801dda1   Thumb Code    76  _printf_oct_int_ll.o(.text)
    _printf_int_oct                          0x0801dded   Thumb Code    24  _printf_oct_int_ll.o(.text)
    _printf_ll_oct                           0x0801de05   Thumb Code    12  _printf_oct_int_ll.o(.text)
    _printf_longlong_hex                     0x0801de19   Thumb Code    92  _printf_hex_int_ll_ptr.o(.text)
    _printf_int_hex                          0x0801de75   Thumb Code    28  _printf_hex_int_ll_ptr.o(.text)
    _printf_ll_hex                           0x0801de91   Thumb Code    12  _printf_hex_int_ll_ptr.o(.text)
    _printf_hex_ptr                          0x0801de9d   Thumb Code    18  _printf_hex_int_ll_ptr.o(.text)
    __printf                                 0x0801deb5   Thumb Code   390  __printf_flags_ss_wp.o(.text)
    _ll_udiv10                               0x0801e041   Thumb Code   138  lludiv10.o(.text)
    _printf_int_common                       0x0801e0cb   Thumb Code   184  _printf_intcommon.o(.text)
    __lib_sel_fp_printf                      0x0801e183   Thumb Code     2  _printf_fp_dec.o(.text)
    _printf_fp_dec_real                      0x0801e32f   Thumb Code   626  _printf_fp_dec.o(.text)
    _printf_cs_common                        0x0801e5a1   Thumb Code    20  _printf_char.o(.text)
    _printf_char                             0x0801e5b5   Thumb Code    16  _printf_char.o(.text)
    _printf_string                           0x0801e5c5   Thumb Code     8  _printf_char.o(.text)
    _printf_lcs_common                       0x0801e5cd   Thumb Code    20  _printf_wchar.o(.text)
    _printf_wchar                            0x0801e5e1   Thumb Code    16  _printf_wchar.o(.text)
    _printf_wstring                          0x0801e5f1   Thumb Code     8  _printf_wchar.o(.text)
    _wcrtomb                                 0x0801e5f9   Thumb Code    64  _wcrtomb.o(.text)
    __user_setup_stackheap                   0x0801e639   Thumb Code    74  sys_stackheap_outer.o(.text)
    __rt_ctype_table                         0x0801e685   Thumb Code    16  rt_ctype_table.o(.text)
    __rt_locale                              0x0801e695   Thumb Code     8  rt_locale_intlibspace.o(.text)
    _printf_fp_infnan                        0x0801e69d   Thumb Code   112  _printf_fp_infnan.o(.text)
    _btod_etento                             0x0801e71d   Thumb Code   222  bigflt0.o(.text)
    exit                                     0x0801e801   Thumb Code    12  exit.o(.text)
    __user_libspace                          0x0801e80d   Thumb Code     8  libspace.o(.text)
    __user_perproc_libspace                  0x0801e80d   Thumb Code     0  libspace.o(.text)
    __user_perthread_libspace                0x0801e80d   Thumb Code     0  libspace.o(.text)
    strcmp                                   0x0801e815   Thumb Code   128  strcmpv7m.o(.text)
    __rt_fp_status_addr                      0x0801e895   Thumb Code     8  rt_fp_status_addr_intlibspace.o(.text)
    _sys_exit                                0x0801e89d   Thumb Code     8  sys_exit.o(.text)
    __I$use$semihosting                      0x0801e8a9   Thumb Code     0  use_no_semi.o(.text)
    __use_no_semihosting_swi                 0x0801e8a9   Thumb Code     2  use_no_semi.o(.text)
    __semihosting_library_function           0x0801e8ab   Thumb Code     0  indicate_semi.o(.text)
    _btod_d2e                                0x0801e8ab   Thumb Code    62  btod.o(CL$$btod_d2e)
    _d2e_denorm_low                          0x0801e8e9   Thumb Code    70  btod.o(CL$$btod_d2e_denorm_low)
    _d2e_norm_op1                            0x0801e92f   Thumb Code    96  btod.o(CL$$btod_d2e_norm_op1)
    __btod_div_common                        0x0801e98f   Thumb Code   696  btod.o(CL$$btod_div_common)
    _e2e                                     0x0801ecc7   Thumb Code   198  btod.o(CL$$btod_e2e)
    _btod_ediv                               0x0801ed8d   Thumb Code    40  btod.o(CL$$btod_ediv)
    _btod_emul                               0x0801edb5   Thumb Code    40  btod.o(CL$$btod_emul)
    __btod_mult_common                       0x0801eddd   Thumb Code   580  btod.o(CL$$btod_mult_common)
    _InitRx                                  0x0801f021   Thumb Code    42  usart_common.o(i._InitRx)
    _SetRxData                               0x0801f059   Thumb Code   262  usart_common.o(i._SetRxData)
    __ARM_fpclassify                         0x0801f16d   Thumb Code    40  fpclassify.o(i.__ARM_fpclassify)
    _is_digit                                0x0801f195   Thumb Code    14  __printf_wp.o(i._is_digit)
    _get_lc_numeric                          0x0801f1a5   Thumb Code    44  lc_numeric_c.o(locale$$code)
    _get_lc_ctype                            0x0801f1d1   Thumb Code    44  lc_ctype_c.o(locale$$code)
    __fpl_fcmp_Inf                           0x0801f1fd   Thumb Code    24  fcmpi.o(x$fpl$fcmpinf)
    __aeabi_fdiv                             0x0801f215   Thumb Code     0  fdiv.o(x$fpl$fdiv)
    _fdiv                                    0x0801f215   Thumb Code   384  fdiv.o(x$fpl$fdiv)
    __aeabi_f2uiz                            0x0801f399   Thumb Code     0  ffixu.o(x$fpl$ffixu)
    _ffixu                                   0x0801f399   Thumb Code    62  ffixu.o(x$fpl$ffixu)
    __aeabi_i2f                              0x0801f3d9   Thumb Code     0  fflt_clz.o(x$fpl$fflt)
    _fflt                                    0x0801f3d9   Thumb Code    48  fflt_clz.o(x$fpl$fflt)
    __aeabi_ui2f                             0x0801f409   Thumb Code     0  fflt_clz.o(x$fpl$ffltu)
    _ffltu                                   0x0801f409   Thumb Code    38  fflt_clz.o(x$fpl$ffltu)
    __aeabi_cfcmple                          0x0801f431   Thumb Code     0  fleqf.o(x$fpl$fleqf)
    _fcmple                                  0x0801f431   Thumb Code   104  fleqf.o(x$fpl$fleqf)
    __fpl_fcmple_InfNaN                      0x0801f483   Thumb Code     0  fleqf.o(x$fpl$fleqf)
    __aeabi_fmul                             0x0801f499   Thumb Code     0  fmul.o(x$fpl$fmul)
    _fmul                                    0x0801f499   Thumb Code   258  fmul.o(x$fpl$fmul)
    __fpl_fnaninf                            0x0801f59b   Thumb Code   140  fnaninf.o(x$fpl$fnaninf)
    _fp_init                                 0x0801f627   Thumb Code    14  fpinit.o(x$fpl$fpinit)
    __fplib_config_pureend_doubles           0x0801f633   Thumb Code     0  fpinit.o(x$fpl$fpinit)
    __fpl_fretinf                            0x0801f635   Thumb Code    10  fretinf.o(x$fpl$fretinf)
    __aeabi_cfrcmple                         0x0801f63f   Thumb Code     0  frleqf.o(x$fpl$frleqf)
    _frcmple                                 0x0801f63f   Thumb Code    98  frleqf.o(x$fpl$frleqf)
    _printf_fp_dec                           0x0801f6a1   Thumb Code     4  printf1.o(x$fpl$printf1)
    CRCTable                                 0x0801f6a4   Data         512  miscfnx.o(.constdata)
    __I$use$fp                               0x0801f6a5   Thumb Code     0  usenofp.o(x$fpl$usenofp)
    Minute_Year                              0x0801f8a4   Data         400  miscfnx.o(.constdata)
    Minute_Month_LeapYear                    0x0801fa34   Data          48  miscfnx.o(.constdata)
    Minute_Month_NormalYear                  0x0801fa64   Data          48  miscfnx.o(.constdata)
    Minute_Date                              0x0801fa94   Data         124  miscfnx.o(.constdata)
    Minute_Hour                              0x0801fb10   Data          96  miscfnx.o(.constdata)
    Seconds_Years_From2000                   0x0801fb70   Data         400  miscfnx.o(.constdata)
    Seconds_Months_FromLeapYear              0x0801fd00   Data          48  miscfnx.o(.constdata)
    Seconds_Months_FromNormalYear            0x0801fd30   Data          48  miscfnx.o(.constdata)
    Seconds_Days_FromThisMonth               0x0801fd60   Data         124  miscfnx.o(.constdata)
    Seconds_Hours_FromThisDay                0x0801fddc   Data          96  miscfnx.o(.constdata)
    _USART_TIME_OUT                          0x0801fe3c   Data          24  usart_common.o(.constdata)
    USART_BaudRate                           0x0801fe54   Data          24  bsp.o(.constdata)
    ADC_GPIO_Pins                            0x0801fe6c   Data           2  bsp_adc.o(.constdata)
    ADC1_Channels                            0x0801fe6e   Data           5  bsp_adc.o(.constdata)
    GPIO_PIN                                 0x0801fe74   Data           6  bsp_led.o(.constdata)
    GPIO_CLK                                 0x0801fe7c   Data          12  bsp_led.o(.constdata)
    COM_USART_CLK                            0x0801fe88   Data          24  bsp_usart.o(.constdata)
    COM_TX_PORT_CLK                          0x0801fea0   Data          24  bsp_usart.o(.constdata)
    COM_RX_PORT_CLK                          0x0801feb8   Data          24  bsp_usart.o(.constdata)
    COM_TX_PIN                               0x0801fed0   Data          12  bsp_usart.o(.constdata)
    COM_RX_PIN                               0x0801fedc   Data          12  bsp_usart.o(.constdata)
    COM_TX_PIN_SOURCE                        0x0801fee8   Data           6  bsp_usart.o(.constdata)
    COM_RX_PIN_SOURCE                        0x0801feee   Data           6  bsp_usart.o(.constdata)
    COM_TX_AF                                0x0801fef4   Data           6  bsp_usart.o(.constdata)
    COM_RX_AF                                0x0801fefa   Data           6  bsp_usart.o(.constdata)
    UsartDmaInfo                             0x0801ff00   Data         192  bsp_usart.o(.constdata)
    UsartIntID                               0x0801ffc0   Data          24  bsp_usart.o(.constdata)
    OSUnMapTbl                               0x0802016c   Data         256  os_core.o(.constdata)
    OSDebugEn                                0x0802026c   Data           2  os_dbg.o(.constdata)
    OSEndiannessTest                         0x08020270   Data           4  os_dbg.o(.constdata)
    OSEventEn                                0x08020274   Data           2  os_dbg.o(.constdata)
    OSEventMax                               0x08020276   Data           2  os_dbg.o(.constdata)
    OSEventNameEn                            0x08020278   Data           2  os_dbg.o(.constdata)
    OSEventSize                              0x0802027a   Data           2  os_dbg.o(.constdata)
    OSEventTblSize                           0x0802027c   Data           2  os_dbg.o(.constdata)
    OSEventMultiEn                           0x0802027e   Data           2  os_dbg.o(.constdata)
    OSFlagEn                                 0x08020280   Data           2  os_dbg.o(.constdata)
    OSFlagGrpSize                            0x08020282   Data           2  os_dbg.o(.constdata)
    OSFlagNodeSize                           0x08020284   Data           2  os_dbg.o(.constdata)
    OSFlagWidth                              0x08020286   Data           2  os_dbg.o(.constdata)
    OSFlagMax                                0x08020288   Data           2  os_dbg.o(.constdata)
    OSFlagNameEn                             0x0802028a   Data           2  os_dbg.o(.constdata)
    OSLowestPrio                             0x0802028c   Data           2  os_dbg.o(.constdata)
    OSMboxEn                                 0x0802028e   Data           2  os_dbg.o(.constdata)
    OSMemEn                                  0x08020290   Data           2  os_dbg.o(.constdata)
    OSMemMax                                 0x08020292   Data           2  os_dbg.o(.constdata)
    OSMemNameEn                              0x08020294   Data           2  os_dbg.o(.constdata)
    OSMemSize                                0x08020296   Data           2  os_dbg.o(.constdata)
    OSMemTblSize                             0x08020298   Data           2  os_dbg.o(.constdata)
    OSMutexEn                                0x0802029a   Data           2  os_dbg.o(.constdata)
    OSPtrSize                                0x0802029c   Data           2  os_dbg.o(.constdata)
    OSQEn                                    0x0802029e   Data           2  os_dbg.o(.constdata)
    OSQMax                                   0x080202a0   Data           2  os_dbg.o(.constdata)
    OSQSize                                  0x080202a2   Data           2  os_dbg.o(.constdata)
    OSRdyTblSize                             0x080202a4   Data           2  os_dbg.o(.constdata)
    OSSemEn                                  0x080202a6   Data           2  os_dbg.o(.constdata)
    OSStkWidth                               0x080202a8   Data           2  os_dbg.o(.constdata)
    OSTaskCreateEn                           0x080202aa   Data           2  os_dbg.o(.constdata)
    OSTaskCreateExtEn                        0x080202ac   Data           2  os_dbg.o(.constdata)
    OSTaskDelEn                              0x080202ae   Data           2  os_dbg.o(.constdata)
    OSTaskIdleStkSize                        0x080202b0   Data           2  os_dbg.o(.constdata)
    OSTaskProfileEn                          0x080202b2   Data           2  os_dbg.o(.constdata)
    OSTaskMax                                0x080202b4   Data           2  os_dbg.o(.constdata)
    OSTaskNameEn                             0x080202b6   Data           2  os_dbg.o(.constdata)
    OSTaskStatEn                             0x080202b8   Data           2  os_dbg.o(.constdata)
    OSTaskStatStkSize                        0x080202ba   Data           2  os_dbg.o(.constdata)
    OSTaskStatStkChkEn                       0x080202bc   Data           2  os_dbg.o(.constdata)
    OSTaskSwHookEn                           0x080202be   Data           2  os_dbg.o(.constdata)
    OSTCBPrioTblMax                          0x080202c0   Data           2  os_dbg.o(.constdata)
    OSTCBSize                                0x080202c2   Data           2  os_dbg.o(.constdata)
    OSTicksPerSec                            0x080202c4   Data           2  os_dbg.o(.constdata)
    OSTimeTickHookEn                         0x080202c6   Data           2  os_dbg.o(.constdata)
    OSVersionNbr                             0x080202c8   Data           2  os_dbg.o(.constdata)
    OSTmrEn                                  0x080202ca   Data           2  os_dbg.o(.constdata)
    OSTmrCfgMax                              0x080202cc   Data           2  os_dbg.o(.constdata)
    OSTmrCfgNameEn                           0x080202ce   Data           2  os_dbg.o(.constdata)
    OSTmrCfgWheelSize                        0x080202d0   Data           2  os_dbg.o(.constdata)
    OSTmrCfgTicksPerSec                      0x080202d2   Data           2  os_dbg.o(.constdata)
    OSTmrSize                                0x080202d4   Data           2  os_dbg.o(.constdata)
    OSTmrTblSize                             0x080202d6   Data           2  os_dbg.o(.constdata)
    OSTmrWheelSize                           0x080202d8   Data           2  os_dbg.o(.constdata)
    OSTmrWheelTblSize                        0x080202da   Data           2  os_dbg.o(.constdata)
    OSDataSize                               0x080202dc   Data           2  os_dbg.o(.constdata)
    Region$$Table$$Base                      0x080203b8   Number         0  anon$$obj.o(Region$$Table)
    Region$$Table$$Limit                     0x080203d8   Number         0  anon$$obj.o(Region$$Table)
    __ctype                                  0x08020401   Data           0  lc_ctype_c.o(locale$$data)
    PosIndex                                 0x20000000   Data           1  app.o(.data)
    Tm10ms                                   0x20000002   Data           2  app.o(.data)
    WkTime                                   0x20000004   Data           2  app.o(.data)
    g_I2C_RdyF                               0x20000006   Data           1  app.o(.data)
    g_UsartRWPowOffComplete                  0x20000007   Data           1  app.o(.data)
    CompexInCnt                              0x20000008   Data           1  app.o(.data)
    PowOffTm                                 0x2000000a   Data           2  app.o(.data)
    CompCnt                                  0x2000000c   Data           1  app.o(.data)
    V110Ready                                0x2000000d   Data           1  app.o(.data)
    TimeUsed                                 0x2000000e   Data           1  app.o(.data)
    PowF                                     0x2000000f   Data           1  app.o(.data)
    g_changed                                0x20000010   Data           1  app.o(.data)
    XferRecIndex                             0x20000011   Data           1  app.o(.data)
    LJBNowTime                               0x20000012   Data           6  app.o(.data)
    Usart_RxFrameHandler                     0x20000018   Data          24  usart_common.o(.data)
    __StartF                                 0x20000030   Data           6  usart_common.o(.data)
    __DLE                                    0x20000036   Data           6  usart_common.o(.data)
    _ResIndex                                0x2000003c   Data           2  app_adc.o(.data)
    _ResHandleIndex                          0x2000003e   Data           2  app_adc.o(.data)
    _TotCnt                                  0x20000040   Data           2  app_adc.o(.data)
    _OldDigRes                               0x20000042   Data           5  app_adc.o(.data)
    _DigRes                                  0x20000047   Data           5  app_adc.o(.data)
    cpu_sr                                   0x2000005c   Data           4  bsp_i2c.o(.data)
    sEEAddress                               0x20000060   Data           2  bsp_i2c.o(.data)
    sEETimeout                               0x20000064   Data           4  bsp_i2c.o(.data)
    sEEDataReadPointer                       0x20000068   Data           4  bsp_i2c.o(.data)
    sEEDataWritePointer                      0x2000006c   Data           4  bsp_i2c.o(.data)
    sEEDataNum                               0x20000070   Data           2  bsp_i2c.o(.data)
    GPIO_PORT                                0x20000074   Data          12  bsp_led.o(.data)
    COM_USART                                0x20000080   Data          24  bsp_usart.o(.data)
    COM_TX_PORT                              0x20000098   Data          24  bsp_usart.o(.data)
    COM_RX_PORT                              0x200000b0   Data          24  bsp_usart.o(.data)
    UsartDmaIsr                              0x200000c8   Data          24  bsp_usart.o(.data)
    UsartIsr                                 0x200000e0   Data          24  bsp_usart.o(.data)
    SystemCoreClock                          0x200000f8   Data           4  system_stm32f2xx.o(.data)
    AHBPrescTable                            0x200000fc   Data          16  system_stm32f2xx.o(.data)
    CPU_TS_TmrFreq_Hz                        0x2000010c   Data           4  cpu_core.o(.data)
    OSCtxSwCtr                               0x20000110   Data           4  os_core.o(.data)
    OSEventFreeList                          0x20000114   Data           4  os_core.o(.data)
    OSFlagFreeList                           0x20000118   Data           4  os_core.o(.data)
    OSCPUUsage                               0x2000011c   Data           1  os_core.o(.data)
    OSIdleCtrMax                             0x20000120   Data           4  os_core.o(.data)
    OSIdleCtrRun                             0x20000124   Data           4  os_core.o(.data)
    OSStatRdy                                0x20000128   Data           1  os_core.o(.data)
    OSIntNesting                             0x20000129   Data           1  os_core.o(.data)
    OSLockNesting                            0x2000012a   Data           1  os_core.o(.data)
    OSPrioCur                                0x2000012b   Data           1  os_core.o(.data)
    OSPrioHighRdy                            0x2000012c   Data           1  os_core.o(.data)
    OSRdyGrp                                 0x2000012d   Data           1  os_core.o(.data)
    OSRdyTbl                                 0x2000012e   Data           8  os_core.o(.data)
    OSRunning                                0x20000136   Data           1  os_core.o(.data)
    OSTaskCtr                                0x20000137   Data           1  os_core.o(.data)
    OSIdleCtr                                0x20000138   Data           4  os_core.o(.data)
    OSTCBCur                                 0x2000013c   Data           4  os_core.o(.data)
    OSTCBFreeList                            0x20000140   Data           4  os_core.o(.data)
    OSTCBHighRdy                             0x20000144   Data           4  os_core.o(.data)
    OSTCBList                                0x20000148   Data           4  os_core.o(.data)
    OSTickStepState                          0x2000014c   Data           1  os_core.o(.data)
    OSMemFreeList                            0x20000150   Data           4  os_core.o(.data)
    OSQFreeList                              0x20000154   Data           4  os_core.o(.data)
    OSTaskRegNextAvailID                     0x20000158   Data           1  os_core.o(.data)
    OSTime                                   0x2000015c   Data           4  os_core.o(.data)
    OSTmrFree                                0x20000160   Data           2  os_core.o(.data)
    OSTmrUsed                                0x20000162   Data           2  os_core.o(.data)
    OSTmrTime                                0x20000164   Data           4  os_core.o(.data)
    OSTmrSem                                 0x20000168   Data           4  os_core.o(.data)
    OSTmrSemSignal                           0x2000016c   Data           4  os_core.o(.data)
    OSTmrFreeList                            0x20000170   Data           4  os_core.o(.data)
    OS_CPU_ExceptStkBase                     0x20000174   Data           4  os_cpu_c.o(.data)
    D110VCnt                                 0x2000018c   Data          10  app.o(.bss)
    AppInfo                                  0x20002d98   Data         300  app.o(.bss)
    LJBPosInfo                               0x20002ec4   Data          32  app.o(.bss)
    RecInfo                                  0x20002ee4   Data          16  app.o(.bss)
    CalibrationInfo                          0x20002ef4   Data          20  app.o(.bss)
    UserInf                                  0x20002f08   Data          13  app.o(.bss)
    ParamBuf                                 0x20002f15   Data         256  app.o(.bss)
    D110VADBuf                               0x20003015   Data          50  app.o(.bss)
    __RxLen                                  0x20003048   Data          12  usart_common.o(.bss)
    _TotBuf                                  0x20003054   Data          20  app_adc.o(.bss)
    AdcBuf                                   0x20003068   Data          10  app_adc.o(.bss)
    _ResBuf                                  0x20003072   Data         160  app_adc.o(.bss)
    Usart1RxBuf                              0x20003114   Data        1024  app_usart1.o(.bss)
    Usart1TxBuf                              0x20003514   Data        1024  app_usart1.o(.bss)
    _tmpRxBuf1                               0x20003914   Data        1024  app_usart1.o(.bss)
    _tmpTxBuf1                               0x20003d14   Data        1024  app_usart1.o(.bss)
    _RxInfo1                                 0x20004114   Data          16  app_usart1.o(.bss)
    _TxInfo1                                 0x20004124   Data          16  app_usart1.o(.bss)
    I2CBuf                                   0x20004134   Data         512  app_usart1.o(.bss)
    Usart6RxBuf                              0x20004334   Data        1024  app_usart6.o(.bss)
    Usart6TxBuf                              0x20004734   Data         256  app_usart6.o(.bss)
    _tmpRxBuf6                               0x20004834   Data        1024  app_usart6.o(.bss)
    _tmpTxBuf6                               0x20004c34   Data         256  app_usart6.o(.bss)
    _RxInfo6                                 0x20004d34   Data          16  app_usart6.o(.bss)
    _TxInfo6                                 0x20004d44   Data          16  app_usart6.o(.bss)
    U6_TxFrmBuf                              0x20004d54   Data         266  app_usart6.o(.bss)
    BSP_Info                                 0x20004e60   Data         308  bsp.o(.bss)
    sEEDMA_InitStructure                     0x200050d8   Data          60  bsp_i2c.o(.bss)
    Sem_UsartTxRdy                           0x20005114   Data          24  bsp_usart.o(.bss)
    CPU_Name                                 0x2000512c   Data          16  cpu_core.o(.bss)
    OSEventTbl                               0x2000513c   Data        1920  os_core.o(.bss)
    OSFlagTbl                                0x200058bc   Data          80  os_core.o(.bss)
    OSTaskStatStk                            0x2000590c   Data         512  os_core.o(.bss)
    OSTaskIdleStk                            0x20005b0c   Data         512  os_core.o(.bss)
    OSTCBPrioTbl                             0x20005d0c   Data         256  os_core.o(.bss)
    OSTCBTbl                                 0x20005e0c   Data        1936  os_core.o(.bss)
    OSMemTbl                                 0x2000659c   Data         120  os_core.o(.bss)
    OSQTbl                                   0x20006614   Data          96  os_core.o(.bss)
    OSTmrTbl                                 0x20006674   Data         640  os_core.o(.bss)
    OSTmrTaskStk                             0x200068f4   Data         512  os_core.o(.bss)
    OSTmrWheelTbl                            0x20006af4   Data          64  os_core.o(.bss)
    OS_CPU_ExceptStk                         0x20006b34   Data         512  os_cpu_c.o(.bss)
    __libspace_start                         0x20006d34   Data          96  libspace.o(.bss)
    __temporary_stack_top$libspace           0x20006d94   Data           0  libspace.o(.bss)



==============================================================================

Memory Map of the image

  Image Entry point : 0x08010185

  Load Region LR_IROM1 (Base: 0x08010000, Size: 0x00010690, Max: 0x00030000, ABSOLUTE, COMPRESSED[0x00010580])

    Execution Region ER_IROM1 (Base: 0x08010000, Size: 0x00010504, Max: 0x00030000, ABSOLUTE)

    Base Addr    Size         Type   Attr      Idx    E Section Name        Object

    0x08010000   0x00000184   Data   RO          535    RESET               cstartup.o
    0x08010184   0x00000008   Code   RO         1790  * !!!main             c_w.l(__main.o)
    0x0801018c   0x00000034   Code   RO         2132    !!!scatter          c_w.l(__scatter.o)
    0x080101c0   0x0000005a   Code   RO         2130    !!dczerorl2         c_w.l(__dczerorl2.o)
    0x0801021a   0x00000002   PAD
    0x0801021c   0x0000001c   Code   RO         2134    !!handler_zi        c_w.l(__scatter_zi.o)
    0x08010238   0x00000000   Code   RO         1896    .ARM.Collect$$_printf_percent$$00000000  c_w.l(_printf_percent.o)
    0x08010238   0x00000006   Code   RO         1885    .ARM.Collect$$_printf_percent$$00000001  c_w.l(_printf_n.o)
    0x0801023e   0x00000006   Code   RO         1887    .ARM.Collect$$_printf_percent$$00000002  c_w.l(_printf_p.o)
    0x08010244   0x00000006   Code   RO         1892    .ARM.Collect$$_printf_percent$$00000003  c_w.l(_printf_f.o)
    0x0801024a   0x00000006   Code   RO         1893    .ARM.Collect$$_printf_percent$$00000004  c_w.l(_printf_e.o)
    0x08010250   0x00000006   Code   RO         1894    .ARM.Collect$$_printf_percent$$00000005  c_w.l(_printf_g.o)
    0x08010256   0x00000006   Code   RO         1895    .ARM.Collect$$_printf_percent$$00000006  c_w.l(_printf_a.o)
    0x0801025c   0x0000000a   Code   RO         1900    .ARM.Collect$$_printf_percent$$00000007  c_w.l(_printf_ll.o)
    0x08010266   0x00000006   Code   RO         1889    .ARM.Collect$$_printf_percent$$00000008  c_w.l(_printf_i.o)
    0x0801026c   0x00000006   Code   RO         1890    .ARM.Collect$$_printf_percent$$00000009  c_w.l(_printf_d.o)
    0x08010272   0x00000006   Code   RO         1891    .ARM.Collect$$_printf_percent$$0000000A  c_w.l(_printf_u.o)
    0x08010278   0x00000006   Code   RO         1888    .ARM.Collect$$_printf_percent$$0000000B  c_w.l(_printf_o.o)
    0x0801027e   0x00000006   Code   RO         1886    .ARM.Collect$$_printf_percent$$0000000C  c_w.l(_printf_x.o)
    0x08010284   0x00000006   Code   RO         1897    .ARM.Collect$$_printf_percent$$0000000D  c_w.l(_printf_lli.o)
    0x0801028a   0x00000006   Code   RO         1898    .ARM.Collect$$_printf_percent$$0000000E  c_w.l(_printf_lld.o)
    0x08010290   0x00000006   Code   RO         1899    .ARM.Collect$$_printf_percent$$0000000F  c_w.l(_printf_llu.o)
    0x08010296   0x00000006   Code   RO         1904    .ARM.Collect$$_printf_percent$$00000010  c_w.l(_printf_llo.o)
    0x0801029c   0x00000006   Code   RO         1905    .ARM.Collect$$_printf_percent$$00000011  c_w.l(_printf_llx.o)
    0x080102a2   0x0000000a   Code   RO         1901    .ARM.Collect$$_printf_percent$$00000012  c_w.l(_printf_l.o)
    0x080102ac   0x00000006   Code   RO         1883    .ARM.Collect$$_printf_percent$$00000013  c_w.l(_printf_c.o)
    0x080102b2   0x00000006   Code   RO         1884    .ARM.Collect$$_printf_percent$$00000014  c_w.l(_printf_s.o)
    0x080102b8   0x00000006   Code   RO         1902    .ARM.Collect$$_printf_percent$$00000015  c_w.l(_printf_lc.o)
    0x080102be   0x00000006   Code   RO         1903    .ARM.Collect$$_printf_percent$$00000016  c_w.l(_printf_ls.o)
    0x080102c4   0x00000004   Code   RO         1942    .ARM.Collect$$_printf_percent$$00000017  c_w.l(_printf_percent_end.o)
    0x080102c8   0x00000006   Code   RO         1991    .ARM.Collect$$libinit$$00000000  c_w.l(libinit.o)
    0x080102ce   0x00000000   Code   RO         2008    .ARM.Collect$$libinit$$00000006  c_w.l(libinit2.o)
    0x080102ce   0x00000000   Code   RO         2010    .ARM.Collect$$libinit$$00000008  c_w.l(libinit2.o)
    0x080102ce   0x00000000   Code   RO         2012    .ARM.Collect$$libinit$$0000000A  c_w.l(libinit2.o)
    0x080102ce   0x00000006   Code   RO         2013    .ARM.Collect$$libinit$$0000000B  c_w.l(libinit2.o)
    0x080102d4   0x00000000   Code   RO         2015    .ARM.Collect$$libinit$$0000000D  c_w.l(libinit2.o)
    0x080102d4   0x0000000c   Code   RO         2016    .ARM.Collect$$libinit$$0000000E  c_w.l(libinit2.o)
    0x080102e0   0x00000000   Code   RO         2017    .ARM.Collect$$libinit$$0000000F  c_w.l(libinit2.o)
    0x080102e0   0x00000000   Code   RO         2019    .ARM.Collect$$libinit$$00000011  c_w.l(libinit2.o)
    0x080102e0   0x0000000a   Code   RO         2020    .ARM.Collect$$libinit$$00000012  c_w.l(libinit2.o)
    0x080102ea   0x00000000   Code   RO         2021    .ARM.Collect$$libinit$$00000013  c_w.l(libinit2.o)
    0x080102ea   0x00000000   Code   RO         2023    .ARM.Collect$$libinit$$00000015  c_w.l(libinit2.o)
    0x080102ea   0x00000000   Code   RO         2025    .ARM.Collect$$libinit$$00000017  c_w.l(libinit2.o)
    0x080102ea   0x00000000   Code   RO         2027    .ARM.Collect$$libinit$$00000019  c_w.l(libinit2.o)
    0x080102ea   0x00000000   Code   RO         2029    .ARM.Collect$$libinit$$0000001B  c_w.l(libinit2.o)
    0x080102ea   0x00000000   Code   RO         2031    .ARM.Collect$$libinit$$0000001D  c_w.l(libinit2.o)
    0x080102ea   0x00000000   Code   RO         2033    .ARM.Collect$$libinit$$0000001F  c_w.l(libinit2.o)
    0x080102ea   0x00000000   Code   RO         2035    .ARM.Collect$$libinit$$00000021  c_w.l(libinit2.o)
    0x080102ea   0x00000000   Code   RO         2039    .ARM.Collect$$libinit$$00000028  c_w.l(libinit2.o)
    0x080102ea   0x00000000   Code   RO         2041    .ARM.Collect$$libinit$$0000002A  c_w.l(libinit2.o)
    0x080102ea   0x00000000   Code   RO         2043    .ARM.Collect$$libinit$$0000002C  c_w.l(libinit2.o)
    0x080102ea   0x00000000   Code   RO         2045    .ARM.Collect$$libinit$$0000002E  c_w.l(libinit2.o)
    0x080102ea   0x00000002   Code   RO         2046    .ARM.Collect$$libinit$$0000002F  c_w.l(libinit2.o)
    0x080102ec   0x00000002   Code   RO         2071    .ARM.Collect$$libshutdown$$00000000  c_w.l(libshutdown.o)
    0x080102ee   0x00000000   Code   RO         2085    .ARM.Collect$$libshutdown$$00000003  c_w.l(libshutdown2.o)
    0x080102ee   0x00000000   Code   RO         2088    .ARM.Collect$$libshutdown$$00000006  c_w.l(libshutdown2.o)
    0x080102ee   0x00000000   Code   RO         2091    .ARM.Collect$$libshutdown$$00000009  c_w.l(libshutdown2.o)
    0x080102ee   0x00000000   Code   RO         2093    .ARM.Collect$$libshutdown$$0000000B  c_w.l(libshutdown2.o)
    0x080102ee   0x00000000   Code   RO         2096    .ARM.Collect$$libshutdown$$0000000E  c_w.l(libshutdown2.o)
    0x080102ee   0x00000002   Code   RO         2097    .ARM.Collect$$libshutdown$$0000000F  c_w.l(libshutdown2.o)
    0x080102f0   0x00000000   Code   RO         1812    .ARM.Collect$$rtentry$$00000000  c_w.l(rtentry.o)
    0x080102f0   0x00000000   Code   RO         1916    .ARM.Collect$$rtentry$$00000002  c_w.l(rtentry2.o)
    0x080102f0   0x00000006   Code   RO         1928    .ARM.Collect$$rtentry$$00000004  c_w.l(rtentry4.o)
    0x080102f6   0x00000000   Code   RO         1918    .ARM.Collect$$rtentry$$00000009  c_w.l(rtentry2.o)
    0x080102f6   0x00000004   Code   RO         1919    .ARM.Collect$$rtentry$$0000000A  c_w.l(rtentry2.o)
    0x080102fa   0x00000000   Code   RO         1921    .ARM.Collect$$rtentry$$0000000C  c_w.l(rtentry2.o)
    0x080102fa   0x00000008   Code   RO         1922    .ARM.Collect$$rtentry$$0000000D  c_w.l(rtentry2.o)
    0x08010302   0x00000002   Code   RO         1999    .ARM.Collect$$rtexit$$00000000  c_w.l(rtexit.o)
    0x08010304   0x00000000   Code   RO         2050    .ARM.Collect$$rtexit$$00000002  c_w.l(rtexit2.o)
    0x08010304   0x00000004   Code   RO         2051    .ARM.Collect$$rtexit$$00000003  c_w.l(rtexit2.o)
    0x08010308   0x00000006   Code   RO         2052    .ARM.Collect$$rtexit$$00000004  c_w.l(rtexit2.o)
    0x0801030e   0x00000016   Code   RO            2    .text               app_hooks.o
    0x08010324   0x00000a28   Code   RO          236    .text               app.o
    0x08010d4c   0x00000208   Code   RO          323    .text               miscfnx.o
    0x08010f54   0x0000036c   Code   RO          343    .text               usart_common.o
    0x080112c0   0x000001f0   Code   RO          399    .text               f205_flash.o
    0x080114b0   0x00000178   Code   RO          415    .text               app_led.o
    0x08011628   0x000003d4   Code   RO          450    .text               app_adc.o
    0x080119fc   0x00000088   Code   RO          473    .text               app_i2c1.o
    0x08011a84   0x00000a24   Code   RO          489    .text               app_usart1.o
    0x080124a8   0x00000cf6   Code   RO          512    .text               app_usart6.o
    0x0801319e   0x00000002   PAD
    0x080131a0   0x00000038   Code   RO          536    .text               cstartup.o
    0x080131d8   0x000001a4   Code   RO          541    .text               bsp.o
    0x0801337c   0x00000428   Code   RO          564    .text               bsp_int.o
    0x080137a4   0x0000009e   Code   RO          582    .text               bsp_os.o
    0x08013842   0x00000002   PAD
    0x08013844   0x0000031c   Code   RO          601    .text               bsp_ser.o
    0x08013b60   0x000001e8   Code   RO          629    .text               bsp_adc.o
    0x08013d48   0x00000958   Code   RO          783    .text               bsp_i2c.o
    0x080146a0   0x00000204   Code   RO          822    .text               bsp_gpio.o
    0x080148a4   0x0000014c   Code   RO          838    .text               bsp_led.o
    0x080149f0   0x000000a4   Code   RO          927    .text               bsp_tm3.o
    0x08014a94   0x0000075c   Code   RO          959    .text               bsp_usart.o
    0x080151f0   0x000001dc   Code   RO          983    .text               system_stm32f2xx.o
    0x080153cc   0x0000032c   Code   RO         1004    .text               cpu_core.o
    0x080156f8   0x000007d0   Code   RO         1024    .text               cpu_c.o
    0x08015ec8   0x00000034   Code   RO         1036    .text               cpu_a.o
    0x08015efc   0x0000028e   Code   RO         1039    .text               lib_ascii.o
    0x0801618a   0x00000244   Code   RO         1072    .text               lib_mem.o
    0x080163ce   0x00000002   PAD
    0x080163d0   0x000009d8   Code   RO         1087    .text               lib_str.o
    0x08016da8   0x00000220   Code   RO         1104    .text               lib_mem_a.o
    0x08016fc8   0x00000e88   Code   RO         1107    .text               os_core.o
    0x08017e50   0x00000938   Code   RO         1131    .text               os_flag.o
    0x08018788   0x00000218   Code   RO         1155    .text               os_mem.o
    0x080189a0   0x0000067c   Code   RO         1179    .text               os_q.o
    0x0801901c   0x000003f8   Code   RO         1191    .text               os_sem.o
    0x08019414   0x00000924   Code   RO         1203    .text               os_task.o
    0x08019d38   0x000001d8   Code   RO         1215    .text               os_time.o
    0x08019f10   0x00000744   Code   RO         1227    .text               os_tmr.o
    0x0801a654   0x0000015c   Code   RO         1239    .text               os_dbg.o
    0x0801a7b0   0x000001bc   Code   RO         1254    .text               os_cpu_c.o
    0x0801a96c   0x000000b0   Code   RO         1277    .text               os_cpu_a.o
    0x0801aa1c   0x00000504   Code   RO         1297    .text               stm32f2xx_adc.o
    0x0801af20   0x000003d8   Code   RO         1457    .text               stm32f2xx_dma.o
    0x0801b2f8   0x00000148   Code   RO         1473    .text               stm32f2xx_exti.o
    0x0801b440   0x000004cc   Code   RO         1489    .text               stm32f2xx_flash.o
    0x0801b90c   0x000002b0   Code   RO         1521    .text               stm32f2xx_gpio.o
    0x0801bbbc   0x0000048c   Code   RO         1585    .text               stm32f2xx_i2c.o
    0x0801c048   0x000005d0   Code   RO         1633    .text               stm32f2xx_rcc.o
    0x0801c618   0x000000ac   Code   RO         1715    .text               stm32f2xx_syscfg.o
    0x0801c6c4   0x00000e4c   Code   RO         1731    .text               stm32f2xx_tim.o
    0x0801d510   0x000004b2   Code   RO         1747    .text               stm32f2xx_usart.o
    0x0801d9c2   0x00000026   Code   RO         1780    .text               c_w.l(llushr.o)
    0x0801d9e8   0x00000034   Code   RO         1782    .text               c_w.l(c89vsnprintf.o)
    0x0801da1c   0x00000044   Code   RO         1784    .text               c_w.l(rt_memclr.o)
    0x0801da60   0x0000004e   Code   RO         1786    .text               c_w.l(rt_memclr_w.o)
    0x0801daae   0x00000006   Code   RO         1788    .text               c_w.l(heapauxi.o)
    0x0801dab4   0x00000052   Code   RO         1815    .text               c_w.l(_printf_pad.o)
    0x0801db06   0x00000024   Code   RO         1817    .text               c_w.l(_printf_truncate.o)
    0x0801db2a   0x00000052   Code   RO         1819    .text               c_w.l(_printf_str.o)
    0x0801db7c   0x00000078   Code   RO         1821    .text               c_w.l(_printf_dec.o)
    0x0801dbf4   0x0000002a   Code   RO         1823    .text               c_w.l(_printf_charcount.o)
    0x0801dc1e   0x00000002   PAD
    0x0801dc20   0x00000030   Code   RO         1825    .text               c_w.l(_printf_char_common.o)
    0x0801dc50   0x0000000a   Code   RO         1827    .text               c_w.l(_sputc.o)
    0x0801dc5a   0x00000010   Code   RO         1829    .text               c_w.l(_snputc.o)
    0x0801dc6a   0x00000002   PAD
    0x0801dc6c   0x000000bc   Code   RO         1831    .text               c_w.l(_printf_wctomb.o)
    0x0801dd28   0x00000078   Code   RO         1834    .text               c_w.l(_printf_longlong_dec.o)
    0x0801dda0   0x00000078   Code   RO         1840    .text               c_w.l(_printf_oct_int_ll.o)
    0x0801de18   0x0000009c   Code   RO         1860    .text               c_w.l(_printf_hex_int_ll_ptr.o)
    0x0801deb4   0x0000018c   Code   RO         1880    .text               c_w.l(__printf_flags_ss_wp.o)
    0x0801e040   0x0000008a   Code   RO         1930    .text               c_w.l(lludiv10.o)
    0x0801e0ca   0x000000b8   Code   RO         1932    .text               c_w.l(_printf_intcommon.o)
    0x0801e182   0x0000041e   Code   RO         1934    .text               c_w.l(_printf_fp_dec.o)
    0x0801e5a0   0x0000002c   Code   RO         1938    .text               c_w.l(_printf_char.o)
    0x0801e5cc   0x0000002c   Code   RO         1940    .text               c_w.l(_printf_wchar.o)
    0x0801e5f8   0x00000040   Code   RO         1943    .text               c_w.l(_wcrtomb.o)
    0x0801e638   0x0000004a   Code   RO         1945    .text               c_w.l(sys_stackheap_outer.o)
    0x0801e682   0x00000002   PAD
    0x0801e684   0x00000010   Code   RO         1947    .text               c_w.l(rt_ctype_table.o)
    0x0801e694   0x00000008   Code   RO         1952    .text               c_w.l(rt_locale_intlibspace.o)
    0x0801e69c   0x00000080   Code   RO         1954    .text               c_w.l(_printf_fp_infnan.o)
    0x0801e71c   0x000000e4   Code   RO         1956    .text               c_w.l(bigflt0.o)
    0x0801e800   0x0000000c   Code   RO         1984    .text               c_w.l(exit.o)
    0x0801e80c   0x00000008   Code   RO         1996    .text               c_w.l(libspace.o)
    0x0801e814   0x00000080   Code   RO         2004    .text               c_w.l(strcmpv7m.o)
    0x0801e894   0x00000008   Code   RO         2059    .text               c_w.l(rt_fp_status_addr_intlibspace.o)
    0x0801e89c   0x0000000c   Code   RO         2063    .text               c_w.l(sys_exit.o)
    0x0801e8a8   0x00000002   Code   RO         2074    .text               c_w.l(use_no_semi.o)
    0x0801e8aa   0x00000000   Code   RO         2076    .text               c_w.l(indicate_semi.o)
    0x0801e8aa   0x0000003e   Code   RO         1959    CL$$btod_d2e        c_w.l(btod.o)
    0x0801e8e8   0x00000046   Code   RO         1961    CL$$btod_d2e_denorm_low  c_w.l(btod.o)
    0x0801e92e   0x00000060   Code   RO         1960    CL$$btod_d2e_norm_op1  c_w.l(btod.o)
    0x0801e98e   0x00000338   Code   RO         1969    CL$$btod_div_common  c_w.l(btod.o)
    0x0801ecc6   0x000000c6   Code   RO         1966    CL$$btod_e2e        c_w.l(btod.o)
    0x0801ed8c   0x00000028   Code   RO         1963    CL$$btod_ediv       c_w.l(btod.o)
    0x0801edb4   0x00000028   Code   RO         1962    CL$$btod_emul       c_w.l(btod.o)
    0x0801eddc   0x00000244   Code   RO         1968    CL$$btod_mult_common  c_w.l(btod.o)
    0x0801f020   0x00000038   Code   RO          360    i._InitRx           usart_common.o
    0x0801f058   0x00000114   Code   RO          366    i._SetRxData        usart_common.o
    0x0801f16c   0x00000028   Code   RO         1994    i.__ARM_fpclassify  m_ws.l(fpclassify.o)
    0x0801f194   0x0000000e   Code   RO         1873    i._is_digit         c_w.l(__printf_wp.o)
    0x0801f1a2   0x00000002   PAD
    0x0801f1a4   0x0000002c   Code   RO         1982    locale$$code        c_w.l(lc_numeric_c.o)
    0x0801f1d0   0x0000002c   Code   RO         2002    locale$$code        c_w.l(lc_ctype_c.o)
    0x0801f1fc   0x00000018   Code   RO         1906    x$fpl$fcmpinf       fz_ws.l(fcmpi.o)
    0x0801f214   0x00000184   Code   RO         1793    x$fpl$fdiv          fz_ws.l(fdiv.o)
    0x0801f398   0x0000003e   Code   RO         1796    x$fpl$ffixu         fz_ws.l(ffixu.o)
    0x0801f3d6   0x00000002   PAD
    0x0801f3d8   0x00000030   Code   RO         1801    x$fpl$fflt          fz_ws.l(fflt_clz.o)
    0x0801f408   0x00000026   Code   RO         1800    x$fpl$ffltu         fz_ws.l(fflt_clz.o)
    0x0801f42e   0x00000002   PAD
    0x0801f430   0x00000068   Code   RO         1806    x$fpl$fleqf         fz_ws.l(fleqf.o)
    0x0801f498   0x00000102   Code   RO         1808    x$fpl$fmul          fz_ws.l(fmul.o)
    0x0801f59a   0x0000008c   Code   RO         1908    x$fpl$fnaninf       fz_ws.l(fnaninf.o)
    0x0801f626   0x0000000e   Code   RO         2047    x$fpl$fpinit        fz_ws.l(fpinit.o)
    0x0801f634   0x0000000a   Code   RO         1910    x$fpl$fretinf       fz_ws.l(fretinf.o)
    0x0801f63e   0x00000062   Code   RO         1810    x$fpl$frleqf        fz_ws.l(frleqf.o)
    0x0801f6a0   0x00000004   Code   RO         1912    x$fpl$printf1       fz_ws.l(printf1.o)
    0x0801f6a4   0x00000000   Code   RO         1914    x$fpl$usenofp       fz_ws.l(usenofp.o)
    0x0801f6a4   0x00000798   Data   RO          324    .constdata          miscfnx.o
    0x0801fe3c   0x00000018   Data   RO          345    .constdata          usart_common.o
    0x0801fe54   0x00000018   Data   RO          543    .constdata          bsp.o
    0x0801fe6c   0x00000007   Data   RO          630    .constdata          bsp_adc.o
    0x0801fe73   0x00000001   PAD
    0x0801fe74   0x00000014   Data   RO          839    .constdata          bsp_led.o
    0x0801fe88   0x00000150   Data   RO          961    .constdata          bsp_usart.o
    0x0801ffd8   0x00000100   Data   RO         1006    .constdata          cpu_core.o
    0x080200d8   0x00000094   Data   RO         1088    .constdata          lib_str.o
    0x0802016c   0x00000100   Data   RO         1109    .constdata          os_core.o
    0x0802026c   0x00000072   Data   RO         1240    .constdata          os_dbg.o
    0x080202de   0x00000002   PAD
    0x080202e0   0x00000008   Data   RO         1832    .constdata          c_w.l(_printf_wctomb.o)
    0x080202e8   0x00000028   Data   RO         1861    .constdata          c_w.l(_printf_hex_int_ll_ptr.o)
    0x08020310   0x00000011   Data   RO         1881    .constdata          c_w.l(__printf_flags_ss_wp.o)
    0x08020321   0x00000003   PAD
    0x08020324   0x00000094   Data   RO         1957    .constdata          c_w.l(bigflt0.o)
    0x080203b8   0x00000020   Data   RO         2128    Region$$Table       anon$$obj.o
    0x080203d8   0x0000001c   Data   RO         1981    locale$$data        c_w.l(lc_numeric_c.o)
    0x080203f4   0x00000110   Data   RO         2001    locale$$data        c_w.l(lc_ctype_c.o)


    Execution Region RW_IRAM1 (Base: 0x20000000, Size: 0x00008598, Max: 0x00018000, ABSOLUTE, COMPRESSED[0x0000007c])

    Base Addr    Size         Type   Attr      Idx    E Section Name        Object

    0x20000000   0x00000018   Data   RW          238    .data               app.o
    0x20000018   0x00000024   Data   RW          346    .data               usart_common.o
    0x2000003c   0x00000010   Data   RW          452    .data               app_adc.o
    0x2000004c   0x0000000d   Data   RW          602    .data               bsp_ser.o
    0x20000059   0x00000003   PAD
    0x2000005c   0x00000016   Data   RW          785    .data               bsp_i2c.o
    0x20000072   0x00000002   PAD
    0x20000074   0x0000000c   Data   RW          840    .data               bsp_led.o
    0x20000080   0x00000078   Data   RW          962    .data               bsp_usart.o
    0x200000f8   0x00000014   Data   RW          984    .data               system_stm32f2xx.o
    0x2000010c   0x00000004   Data   RW         1007    .data               cpu_core.o
    0x20000110   0x00000064   Data   RW         1110    .data               os_core.o
    0x20000174   0x00000006   Data   RW         1256    .data               os_cpu_c.o
    0x2000017a   0x00000010   Data   RW         1634    .data               stm32f2xx_rcc.o
    0x2000018a   0x00000002   PAD
    0x2000018c   0x00002ebb   Zero   RW          237    .bss                app.o
    0x20003047   0x00000001   PAD
    0x20003048   0x0000000c   Zero   RW          344    .bss                usart_common.o
    0x20003054   0x000000be   Zero   RW          451    .bss                app_adc.o
    0x20003112   0x00000002   PAD
    0x20003114   0x00001220   Zero   RW          490    .bss                app_usart1.o
    0x20004334   0x00000b2a   Zero   RW          513    .bss                app_usart6.o
    0x20004e5e   0x00000002   PAD
    0x20004e60   0x00000134   Zero   RW          542    .bss                bsp.o
    0x20004f94   0x00000144   Zero   RW          565    .bss                bsp_int.o
    0x200050d8   0x0000003c   Zero   RW          784    .bss                bsp_i2c.o
    0x20005114   0x00000018   Zero   RW          960    .bss                bsp_usart.o
    0x2000512c   0x00000010   Zero   RW         1005    .bss                cpu_core.o
    0x2000513c   0x000019f8   Zero   RW         1108    .bss                os_core.o
    0x20006b34   0x00000200   Zero   RW         1255    .bss                os_cpu_c.o
    0x20006d34   0x00000060   Zero   RW         1997    .bss                c_w.l(libspace.o)
    0x20006d94   0x00000004   PAD
    0x20006d98   0x00000000   Zero   RW          534    HEAP                cstartup.o
    0x20006d98   0x00001800   Zero   RW          533    STACK               cstartup.o


==============================================================================

Image component sizes


      Code (inc. data)   RO Data    RW Data    ZI Data      Debug   Object Name

      2600        276          0         24      11963      23324   app.o
       980         90          0         16        190       3571   app_adc.o
        22          0          0          0          0     332606   app_hooks.o
       136          0          0          0          0        788   app_i2c1.o
       376          4          0          0          0        577   app_led.o
      2596        112          0          0       4640       4135   app_usart1.o
      3318        120          0          0       2858       7106   app_usart6.o
       420         34         24          0        308       7188   bsp.o
       488         48          7          0          0     245010   bsp_adc.o
       516         28          0          0          0       1712   bsp_gpio.o
      2392        126          0         22         60       6002   bsp_i2c.o
      1064         10          0          0        324      13622   bsp_int.o
       332         14         20         12          0       1887   bsp_led.o
       158          0          0          0          0       2202   bsp_os.o
       796         74          0         13          0       3580   bsp_ser.o
       164         16          0          0          0        671   bsp_tm3.o
      1884        116        336        120         24      11275   bsp_usart.o
        52          0          0          0          0        288   cpu_a.o
      2000        112          0          0          0       3485   cpu_c.o
       812         14        256          4         16       6620   cpu_core.o
        56         24        388          0       6144        648   cstartup.o
       496          0          0          0          0       2852   f205_flash.o
       654          0          0          0          0       3848   lib_ascii.o
       580          0          0          0          0       3540   lib_mem.o
       544          0          0          0          0        436   lib_mem_a.o
      2520          6        148          0          0      13826   lib_str.o
       520         44       1944          0          0       3266   miscfnx.o
      3720        306        256        100       6648      19240   os_core.o
       176         36          0          0          0        340   os_cpu_a.o
       444         30          0          6        512      12391   os_cpu_c.o
       348        230        114          0          0       3389   os_dbg.o
      2360         40          0          0          0       7196   os_flag.o
       536         16          0          0          0       3308   os_mem.o
      1660         36          0          0          0       5821   os_q.o
      1016         20          0          0          0       4086   os_sem.o
      2340         86          0          0          0       8292   os_task.o
       472         28          0          0          0       1850   os_time.o
      1860        134          0          0          0       5769   os_tmr.o
      1284         28          0          0          0      10502   stm32f2xx_adc.o
       984         50          0          0          0       6293   stm32f2xx_dma.o
       328         24          0          0          0       2219   stm32f2xx_exti.o
      1228         68          0          0          0       6881   stm32f2xx_flash.o
       688         36          0          0          0       3917   stm32f2xx_gpio.o
      1164         26          0          0          0       8075   stm32f2xx_i2c.o
      1488        158          0         16          0      10943   stm32f2xx_rcc.o
       172         22          0          0          0       1499   stm32f2xx_syscfg.o
      3660         62          0          0          0      23032   stm32f2xx_tim.o
      1202         26          0          0          0       7688   stm32f2xx_usart.o
       476         58          0         20          0       1787   system_stm32f2xx.o
      1208         68         24         36         12       7506   usart_common.o

    ----------------------------------------------------------------------
     55296       2856       3552        396      33704     866089   Object Totals
         0          0         32          0          0          0   (incl. Generated)
         6          0          3          7          5          0   (incl. Padding)

    ----------------------------------------------------------------------

      Code (inc. data)   RO Data    RW Data    ZI Data      Debug   Library Member Name

        90          0          0          0          0          0   __dczerorl2.o
         8          0          0          0          0         68   __main.o
       396          6         17          0          0         92   __printf_flags_ss_wp.o
        14          0          0          0          0         68   __printf_wp.o
        52          8          0          0          0          0   __scatter.o
        28          0          0          0          0          0   __scatter_zi.o
         6          0          0          0          0          0   _printf_a.o
         6          0          0          0          0          0   _printf_c.o
        44          0          0          0          0        108   _printf_char.o
        48          6          0          0          0         96   _printf_char_common.o
        42          0          0          0          0         68   _printf_charcount.o
         6          0          0          0          0          0   _printf_d.o
       120         18          0          0          0         92   _printf_dec.o
         6          0          0          0          0          0   _printf_e.o
         6          0          0          0          0          0   _printf_f.o
      1054          0          0          0          0        216   _printf_fp_dec.o
       128         16          0          0          0         84   _printf_fp_infnan.o
         6          0          0          0          0          0   _printf_g.o
       156          6         40          0          0        160   _printf_hex_int_ll_ptr.o
         6          0          0          0          0          0   _printf_i.o
       184          0          0          0          0         88   _printf_intcommon.o
        10          0          0          0          0          0   _printf_l.o
         6          0          0          0          0          0   _printf_lc.o
        10          0          0          0          0          0   _printf_ll.o
         6          0          0          0          0          0   _printf_lld.o
         6          0          0          0          0          0   _printf_lli.o
         6          0          0          0          0          0   _printf_llo.o
         6          0          0          0          0          0   _printf_llu.o
         6          0          0          0          0          0   _printf_llx.o
       120         16          0          0          0         92   _printf_longlong_dec.o
         6          0          0          0          0          0   _printf_ls.o
         6          0          0          0          0          0   _printf_n.o
         6          0          0          0          0          0   _printf_o.o
       120          8          0          0          0        124   _printf_oct_int_ll.o
         6          0          0          0          0          0   _printf_p.o
        82          0          0          0          0        108   _printf_pad.o
         0          0          0          0          0          0   _printf_percent.o
         4          0          0          0          0          0   _printf_percent_end.o
         6          0          0          0          0          0   _printf_s.o
        82          0          0          0          0         80   _printf_str.o
        36          0          0          0          0         84   _printf_truncate.o
         6          0          0          0          0          0   _printf_u.o
        44          0          0          0          0        108   _printf_wchar.o
       188          6          8          0          0         92   _printf_wctomb.o
         6          0          0          0          0          0   _printf_x.o
        16          0          0          0          0         68   _snputc.o
        10          0          0          0          0         68   _sputc.o
        64          0          0          0          0         92   _wcrtomb.o
       228          6        148          0          0         96   bigflt0.o
      1910        128          0          0          0        672   btod.o
        52          6          0          0          0         80   c89vsnprintf.o
        12          0          0          0          0         72   exit.o
         6          0          0          0          0        152   heapauxi.o
         0          0          0          0          0          0   indicate_semi.o
        44         10        272          0          0         76   lc_ctype_c.o
        44         10         28          0          0         76   lc_numeric_c.o
         6          0          0          0          0          0   libinit.o
        30          0          0          0          0          0   libinit2.o
         2          0          0          0          0          0   libshutdown.o
         2          0          0          0          0          0   libshutdown2.o
         8          4          0          0         96         68   libspace.o
       138          0          0          0          0         80   lludiv10.o
        38          0          0          0          0         68   llushr.o
        16          4          0          0          0         76   rt_ctype_table.o
         8          4          0          0          0         68   rt_fp_status_addr_intlibspace.o
         8          4          0          0          0         68   rt_locale_intlibspace.o
        68          0          0          0          0         68   rt_memclr.o
        78          0          0          0          0         80   rt_memclr_w.o
         0          0          0          0          0          0   rtentry.o
        12          0          0          0          0          0   rtentry2.o
         6          0          0          0          0          0   rtentry4.o
         2          0          0          0          0          0   rtexit.o
        10          0          0          0          0          0   rtexit2.o
       128          0          0          0          0         68   strcmpv7m.o
        12          4          0          0          0         68   sys_exit.o
        74          0          0          0          0         80   sys_stackheap_outer.o
         2          0          0          0          0         68   use_no_semi.o
        24          0          0          0          0         68   fcmpi.o
       388         76          0          0          0         96   fdiv.o
        62          4          0          0          0         84   ffixu.o
        86          0          0          0          0        136   fflt_clz.o
       104          4          0          0          0         84   fleqf.o
       258          4          0          0          0         84   fmul.o
       140          4          0          0          0         84   fnaninf.o
        14          0          0          0          0         76   fpinit.o
        10          0          0          0          0         68   fretinf.o
        98          0          0          0          0         68   frleqf.o
         4          0          0          0          0         68   printf1.o
         0          0          0          0          0          0   usenofp.o
        40          0          0          0          0         68   fpclassify.o

    ----------------------------------------------------------------------
      7456        362        516          0        100       5124   Library Totals
        14          0          3          0          4          0   (incl. Padding)

    ----------------------------------------------------------------------

      Code (inc. data)   RO Data    RW Data    ZI Data      Debug   Library Name

      6214        270        513          0         96       4140   c_w.l
      1188         92          0          0          0        916   fz_ws.l
        40          0          0          0          0         68   m_ws.l

    ----------------------------------------------------------------------
      7456        362        516          0        100       5124   Library Totals

    ----------------------------------------------------------------------

==============================================================================


      Code (inc. data)   RO Data    RW Data    ZI Data      Debug   

     62752       3218       4068        396      33804     863569   Grand Totals
     62752       3218       4068        124      33804     863569   ELF Image Totals (compressed)
     62752       3218       4068        124          0          0   ROM Totals

==============================================================================

    Total RO  Size (Code + RO Data)                66820 (  65.25kB)
    Total RW  Size (RW Data + ZI Data)             34200 (  33.40kB)
    Total ROM Size (Code + RO Data + RW Data)      66944 (  65.38kB)

==============================================================================

